(lp0
I828025006626058241
aI828024724710182912
aI828024709761658880
aI828024426356686848
aI828024390315102208
aI828024204704505858
aI828024196349444101
aI828024193312751620
aI828023872347897858
aI828023789988478983
aI828023192086335490
aI828023016785326081
aI828022929304727552
aI828022592414023681
aI828022423983419392
aI828022419281629188
aI828022327585697792
aI828022290730405889
aI828022283755220994
aI828022142138773505
aI828021893395599360
aI828021524024197122
aI828021340061986816
aI828021138152423425
aI828021043608555520
aI828021034725019648
aI828020402597330944
aI828020302307287041
aI828020302135382016
aI828020290819088385
aI828020269331660803
aI828020243704475649
aI828019739532414976
aI828019737829449728
aI828019711002738692
aI828019541242413061
aI828019217433784321
aI828019202116218881
aI828019021324906501
aI828018982041026560
aI828018953691791364
aI828018707758739457
aI828018695200980993
aI828018692042682371
aI828018452157849600
aI828018419102527488
aI828018247438102528
aI828018133491412992
aI828018031003574272
aI828017960275103749
aI828017863906693120
aI828017810202845184
aI828017718267871234
aI828017573799350272
aI828017423970398209
aI828017312146010114
aI828017276012097539
aI828017266562318339
aI828016685995134976
aI828016615711182849
aI828016604441088001
aI828016528935235586
aI828016483343163392
aI828016451076374529
aI828016392104452096
aI828016272441016320
aI828016088004907012
aI828016075501613057
aI828015739307163648
aI828015610894356486
aI828015429188780036
aI828015327481053185
aI828015253061525504
aI828015228956839937
aI828015210736840704
aI828015205288439808
aI828015116088143872
aI828015016720871424
aI828014933883441153
aI828014929961697280
aI828014913629122560
aI828014905756364800
aI828014750042845184
aI828014578676142085
aI828014436891910144
aI828014358198366209
aI828014260936663041
aI828014236832059392
aI828014101674786817
aI828014090304024578
aI828014063124934656
aI828014046913896448
aI828014017146937346
aI828013787986948096
aI828013731716136961
aI828013725114302464
aI828013600652541952
aI828013589801865219
aI828013557035958273
aI828013090356748288
aI828013065186729984
aI828012992000360449
aI828012840757948420
aI828012691033882629
aI828012670272028673
aI828012498871787521
aI828012464071655429
aI828012448905052161
aI828012303836643328
aI828012139705225221
aI828012056263684097
aI828011892912320512
aI828011817855283201
aI828011759793471489
aI828011440602750977
aI828011430716780545
aI828011121961492480
aI828011065883639808
aI828011047453917185
aI828010895687180288
aI828010868805865473
aI828010842163658752
aI828010779295223809
aI828010774383751168
aI828010701776117760
aI828010697254658048
aI828010620427583493
aI828010614442303489
aI828010498721476609
aI828010478676930565
aI828010420535439361
aI828010303724077056
aI828010147419152384
aI828010041512960000
aI828009913981005826
aI828009701610835968
aI828009685420744704
aI828009571792908289
aI828009542873128960
aI828009349452808192
aI828009170842550272
aI828008904240005120
aI828008802846961666
aI828008712430313477
aI828008671955279873
aI828008561720586240
aI828008544855285760
aI828008130550317056
aI828007866535669764
aI828007601766006785
aI828007301449654272
aI828007230523977733
aI828006786347257857
aI828006766503931904
aI828006666767564800
aI828006357903241218
aI828006314282455040
aI828006225757556736
aI828006217062694912
aI828006208858624001
aI828006053291913217
aI828006043535998978
aI828006040679620608
aI828005790615269377
aI828005614009843714
aI828005563443322880
aI828005548612259841
aI828005162207805443
aI828005095115747329
aI828004991529009152
aI828004936046739456
aI828004918686601216
aI828004675202998272
aI828004572035739648
aI828004158896795649
aI828004088654737409
aI828004019767562241
aI828003995075612672
aI828003822194814976
aI828003733967687681
aI828003509299707904
aI828003371982475265
aI828003351379968000
aI828002927168126980
aI828002856745713664
aI828002656778063873
aI828002553325580288
aI828002517703344129
aI828002430159818754
aI828002381682053128
aI828002376716017664
aI828002244192829442
aI828002192170815489
aI828002068564697093
aI828002043562455040
aI828001994422026241
aI828001855364091908
aI828001765568176129
aI828001636052254720
aI828001542741565440
aI828001373702733825
aI828001142772736001
aI828001139920617472
aI828001130122772481
aI828001036220645377
aI828000983338848261
aI828000930746474499
aI828000842607448064
aI828000786051452928
aI828000735556202497
aI828000521797632000
aI828000310291525632
aI828000053017137152
aI827999940362268678
aI827999781716901890
aI827999768207097856
aI827999660795117569
aI827999650389049344
aI827999602167148549
aI827999440648691712
aI827999279692279808
aI827999030789668864
aI827998934178131968
aI827998898090344449
aI827998850354917377
aI827998755366588416
aI827998743375052800
aI827998559106695168
aI827998408740859905
aI827998378504097792
aI827998304650797057
aI827998242994606080
aI827998190737747969
aI827998179010437120
aI827998126279651328
aI827997938035130369
aI827997828865744898
aI827997716294819840
aI827997593871474688
aI827997564653928448
aI827997372147974144
aI827997305492103169
aI827997243798089728
aI827997178417160193
aI827997070816591873
aI827997070657208320
aI827996993935048704
aI827996803169656832
aI827996498017259521
aI827996478467620864
aI827996440026808320
aI827996431181029380
aI827996344111480833
aI827996335517335552
aI827996162825269249
aI827996069271306240
aI827995934474764288
aI827995844033052672
aI827995724277223425
aI827995620828917761
aI827995393950629890
aI827995348882829313
aI827995289973878790
aI827995115440525312
aI827995111938256896
aI827995011023302656
aI827994968346206209
aI827994848410079232
aI827994708341305345
aI827994692604276741
aI827994592507199488
aI827994556855640066
aI827994351930327040
aI827994187329105922
aI827994003656306688
aI827993988892336130
aI827993986967150594
aI827993965815332864
aI827993955539288065
aI827993922857230340
aI827993906239397894
aI827993830121160705
aI827993733450850305
aI827993612747153408
aI827993521755979777
aI827993498158759941
aI827993282072436736
aI827993260777955328
aI827992579895652354
aI827992541261864960
aI827992282787901440
aI827992264257503234
aI827992193092767745
aI827991991287963649
aI827991984031821825
aI827991960191397889
aI827991895494295553
aI827991892445057024
aI827991817496961024
aI827991784315826176
aI827991690883584001
aI827991637724905472
aI827991499929485312
aI827991493331865600
aI827990764676403202
aI827990513835995137
aI827990402561105920
aI827990326958776320
aI827990285670039554
aI827990208759074817
aI827990204799676420
aI827990124822687745
aI827989999845044224
aI827989974146490368
aI827989806315601921
aI827989646005133312
aI827989643119456256
aI827989390601416704
aI827989373358596098
aI827989090767339521
aI827989042960666624
aI827989034291101696
aI827988987545583616
aI827988933736853504
aI827988878233583619
aI827988685064962048
aI827988586079408128
aI827988464360624128
aI827988438456610817
aI827988437710012416
aI827988142938587138
aI827987940987064328
aI827987796262526977
aI827987631506128896
aI827987527751651328
aI827987498018172929
aI827987347811794945
aI827986994005422080
aI827986965677142018
aI827986916754731008
aI827986857694810112
aI827986814329880577
aI827986731370704901
aI827986707358294023
aI827986593394917377
aI827986529897349120
aI827986254096695298
aI827986206403227649
aI827986196601196544
aI827986093857447936
aI827986063432044544
aI827985984352575489
aI827985961946583040
aI827985937292468224
aI827985880463896576
aI827985821269639168
aI827985787010547713
aI827985759969931266
aI827985525646753793
aI827985438161960961
aI827985241365176321
aI827985112335777793
aI827985079498571777
aI827985061253373952
aI827984827538370560
aI827984760156856320
aI827984679802433536
aI827984419478716416
aI827983965822808069
aI827983890233098241
aI827983840094326785
aI827983828203487232
aI827983788978356225
aI827983636829974528
aI827983620438638594
aI827983545708793857
aI827983531364274178
aI827983398580940800
aI827983280859389954
aI827983236240400384
aI827983149036605440
aI827982908967251968
aI827982830038827009
aI827982780495753216
aI827982748098899969
aI827982648354144256
aI827982449493831680
aI827982356996878336
aI827982256471998464
aI827982190134837248
aI827982176356593665
aI827982034408701952
aI827981817747615748
aI827981723493400576
aI827981623077568517
aI827981519419498496
aI827981153059688448
aI827981117424812033
aI827980960591446017
aI827980898448633856
aI827980887295918081
aI827980613168799744
aI827980563785064449
aI827980558634512385
aI827980536794664960
aI827980379860656128
aI827980339830218754
aI827980301796311042
aI827980150461575168
aI827980136825884674
aI827980101992271872
aI827979671350415360
aI827979587745411072
aI827979565670739969
aI827979462188867584
aI827979163579666437
aI827979077961338881
aI827978862780960768
aI827978661903134725
aI827978546232565760
aI827978420265029632
aI827978213322346498
aI827978085018517508
aI827977867027947521
aI827977755237183489
aI827977734156644353
aI827977413309112320
aI827977181775220736
aI827977144127090690
aI827977125995085824
aI827977007032066048
aI827977002946797569
aI827976972936548353
aI827976623291039745
aI827976449105788932
aI827976404792930306
aI827976323847032832
aI827976176312385537
aI827975817003151361
aI827975795578638336
aI827975588791087104
aI827975417156030464
aI827975261387886592
aI827975220359208961
aI827975182174318596
aI827975097243811841
aI827975077090230275
aI827975063764873221
aI827974748449685505
aI827974615901282305
aI827974573207482372
aI827974517846835200
aI827974440009007104
aI827974309855510529
aI827974275927777281
aI827974141236146177
aI827974131266228224
aI827974099645452288
aI827973981600890885
aI827973956250587136
aI827973776914649089
aI827973363985428482
aI827973137803444224
aI827973038503239682
aI827972957486067714
aI827972879291662336
aI827972505205891072
aI827972143501737985
aI827972060097941506
aI827972013989982209
aI827971969194799104
aI827971968846745602
aI827971884411150336
aI827971870339239936
aI827971773471801345
aI827971700054712320
aI827971466595598337
aI827971399352467456
aI827971167621365760
aI827971008359440384
aI827971003749978114
aI827970885017444353
aI827970442753409024
aI827970087378415616
aI827970079723749377
aI827969971040960513
aI827969956880973826
aI827969857002098688
aI827969816824786944
aI827969786009227265
aI827969740962422784
aI827969250178510848
aI827969246739181569
aI827969211842560000
aI827969143945170946
aI827968999610789888
aI827968972159086592
aI827968970573623298
aI827968843171635201
aI827968770404732932
aI827968770350145536
aI827968622735847425
aI827968331424608256
aI827968239988781063
aI827967951240359936
aI827967917828481025
aI827967467934851072
aI827967189919621121
aI827967016925556736
aI827966926047567876
aI827966876466692098
aI827966497389690883
aI827966396541894657
aI827966063732203520
aI827966022347063301
aI827965828041687041
aI827965790083227649
aI827965787549765632
aI827965264981524480
aI827965054142312450
aI827965044445048833
aI827964891348758531
aI827964785086099456
aI827964706761670656
aI827964479828848642
aI827964266615566338
aI827964205424844802
aI827964084691824642
aI827964083492237312
aI827964050214645760
aI827963592221872132
aI827963404119846913
aI827963284087308288
aI827963246267203589
aI827963087667990529
aI827963046123429888
aI827963000241926144
aI827962999466033153
aI827962867022495744
aI827962725972246528
aI827962716727943170
aI827962071945986049
aI827961898721300480
aI827961897538486276
aI827961637911064577
aI827961563042680832
aI827961539680403457
aI827961377549643781
aI827961345614180352
aI827961239829671937
aI827961234091810816
aI827961031146270720
aI827960958731636741
aI827960736446050304
aI827960555004641280
aI827960512784773121
aI827960509207048192
aI827960377442988032
aI827960371751317505
aI827960320664727553
aI827960162325495808
aI827960069568491520
aI827959975397949442
aI827959903297875969
aI827959886327775232
aI827959847849189377
aI827959494378418183
aI827959198994538496
aI827959072158789633
aI827958661674840072
aI827958524135227392
aI827958492820561921
aI827958049956564992
aI827958037625331713
aI827957940988555265
aI827957907761291265
aI827957866703286272
aI827957709450387456
aI827957642328997889
aI827957630073241600
aI827957601602326528
aI827957186403954688
aI827956958372184064
aI827956606394630145
aI827956572827611136
aI827956571841953792
aI827956567278497798
aI827956426882564097
aI827956338022051841
aI827956284485951488
aI827956209944780803
aI827956185622073344
aI827956178927902720
aI827956169079664640
aI827955943170252800
aI827955780808802306
aI827955716795273216
aI827955284303872004
aI827955106834423810
aI827955056381198337
aI827954966342017026
aI827954911849619456
aI827954901263273984
aI827954874033790977
aI827954775983534081
aI827954545036840960
aI827954396071919616
aI827954384306831361
aI827954349846446081
aI827954254094671872
aI827954199384227841
aI827954185333252096
aI827954185316528128
aI827954106778136576
aI827953897843126276
aI827953833649328129
aI827953673988894721
aI827953480979644416
aI827953313022894082
aI827953185566363648
aI827953056960626689
aI827952875066257412
aI827952842778562560
aI827952824956895233
aI827952781294202881
aI827952744384360456
aI827952738902429701
aI827952624150405122
aI827952544085327872
aI827952469548335104
aI827952379408556032
aI827952349876457474
aI827952302807982080
aI827952081919209472
aI827952035324653573
aI827952026231373827
aI827951981138411522
aI827951911957590017
aI827951909856223232
aI827951859583311872
aI827951841996636162
aI827951741090009088
aI827951710991679490
aI827951683762257921
aI827951227812065281
aI827951072274702336
aI827950762147864577
aI827950698105028609
aI827950686797197315
aI827950578433196032
aI827950319640391680
aI827950193412825088
aI827950029084164096
aI827949850297778176
aI827949711701188609
aI827949670878085120
aI827949580327219200
aI827949572454510592
aI827949460114247681
aI827949455752253440
aI827949444385632256
aI827949438752653312
aI827949370012229634
aI827948935822065664
aI827948610969096192
aI827948493637615620
aI827948197368721409
aI827948094067191808
aI827947908305666048
aI827947794312867840
aI827947777669943297
aI827947742043525120
aI827947690617085953
aI827947325234544641
aI827947314325155841
aI827947254430519296
aI827947083785240576
aI827947071319719938
aI827946828993789957
aI827946789185675264
aI827946677441015809
aI827946555776892930
aI827946312456949761
aI827946121511202817
aI827946114552823809
aI827945599756537857
aI827945516294086657
aI827945011526381568
aI827944843125149696
aI827944809658740736
aI827944646886227970
aI827944569887145986
aI827944269486845953
aI827944179401707521
aI827944058576322561
aI827943767093161984
aI827943649472344064
aI827943315802902533
aI827943260337344513
aI827943091801845760
aI827942872607576065
aI827942710543806465
aI827942422864855040
aI827942405299134464
aI827941722013519872
aI827941695878811649
aI827941543877214210
aI827941363270430720
aI827941055052017666
aI827941012865695745
aI827940866706784256
aI827940795844001792
aI827940718748508160
aI827940642374434818
aI827940241289904133
aI827940051296337921
aI827939954382761986
aI827939842935894016
aI827939672605212672
aI827939527952039936
aI827939405675524102
aI827939240382177280
aI827939227396632577
aI827939139098124288
aI827938978779258880
aI827938959015735296
aI827938891038605312
aI827938874026508288
aI827938600323055616
aI827938342625013760
aI827938234273509376
aI827938206490513412
aI827938089855234049
aI827937997953888258
aI827937973475880970
aI827937601990565888
aI827937520730198018
aI827937392891920384
aI827937376479625216
aI827937068114407427
aI827936959318339584
aI827936943015133184
aI827936853072420867
aI827936667600293889
aI827936626173210624
aI827936479116660737
aI827936384803549186
aI827936184223531008
aI827936182881361928
aI827936132222562304
aI827935984994156545
aI827935643913289729
aI827935541110898689
aI827935505681620993
aI827935440539893760
aI827935237724336129
aI827935182611214336
aI827934980374458368
aI827934844625772545
aI827934714384232451
aI827934694104846337
aI827934628212310016
aI827934560604286977
aI827934477280223232
aI827934360364007424
aI827934156642512896
aI827934012601688065
aI827933747823644672
aI827933218322145281
aI827932973697753088
aI827932806848376833
aI827932732529504260
aI827932633485103104
aI827932228206415872
aI827932076162875393
aI827932024560287744
aI827931630773886976
aI827931494203133952
aI827931082079223808
aI827931056493953025
aI827931053134381057
aI827930878412197890
aI827930798129025025
aI827930790344454144
aI827930727505346560
aI827930690817777666
aI827930223563902977
aI827929991811837953
aI827929837331480577
aI827929692971859968
aI827929602236489729
aI827929387819483137
aI827929237613060096
aI827928825447272449
aI827928552892932096
aI827928491509297153
aI827928310785122305
aI827928231554777088
aI827928138546032640
aI827927854138654720
aI827927597149458434
aI827927375577022465
aI827927267108077568
aI827927127412588546
aI827926855294578688
aI827926842124488705
aI827926612083605505
aI827926540314877952
aI827926540088401921
aI827926489601568768
aI827926208268607488
aI827926066832539648
aI827925971051347971
aI827925969239437312
aI827925943155097601
aI827925806282371073
aI827925730893897729
aI827925598068670464
aI827925195545509888
aI827925144303710209
aI827925125420822531
aI827925101811290115
aI827925065933213696
aI827924987856158721
aI827924967639629824
aI827924910978654208
aI827924900937682944
aI827924435369869313
aI827924343103582210
aI827923928588877828
aI827923924130336768
aI827923679606607872
aI827923578452582402
aI827923477743206400
aI827923317504012288
aI827923307576119296
aI827923068672679936
aI827922982878248960
aI827922752745177088
aI827922720310575104
aI827922697803948033
aI827922516014411776
aI827922429674676224
aI827922305405771776
aI827922237734920192
aI827922201148059648
aI827922071510474757
aI827921988471685120
aI827921895811002368
aI827921865310089216
aI827921751115984896
aI827921741682966528
aI827921593221443586
aI827921584459546624
aI827921483833942016
aI827921357212098560
aI827921350815793152
aI827920986804723713
aI827920948976353281
aI827920868311498752
aI827920660374646785
aI827920616409952256
aI827920469479321600
aI827920355616497667
aI827920114674724864
aI827920074707181568
aI827919991563493377
aI827919804430422016
aI827919742203731968
aI827919737292255234
aI827919729738338304
aI827919706434723841
aI827919677552807941
aI827919609961578497
aI827919588750917632
aI827919458916298752
aI827919303760568320
aI827918960200974336
aI827918949174112257
aI827918854831620096
aI827918840080244737
aI827918518452678656
aI827918282200010752
aI827918256824545280
aI827918125962293253
aI827917989903204352
aI827917836077117442
aI827917813344006144
aI827917334023122946
aI827917219933908992
aI827917067210874880
aI827916781083844609
aI827916746707365888
aI827916597603995650
aI827916527353618432
aI827916378694963201
aI827916342670028800
aI827916247820025860
aI827915936007065600
aI827915825176776705
aI827915543902568449
aI827915536038244358
aI827915492216229892
aI827914172432314368
aI827914101926027264
aI827914037937713152
aI827913938532696064
aI827913937362571264
aI827913866759778305
aI827913854927646720
aI827913817745190912
aI827913584332173312
aI827913507668623360
aI827913358598893568
aI827913321877737477
aI827913250536902656
aI827913081229570048
aI827912960030945280
aI827912951592005634
aI827912937079709696
aI827912918104686592
aI827912905408577537
aI827912901008773121
aI827912810592092160
aI827912090996322309
aI827911998906175489
aI827911873060286464
aI827911785575489536
aI827911763450540033
aI827911685042294786
aI827911633003503616
aI827911615307739137
aI827911589286309888
aI827911492808880130
aI827911384608419843
aI827911253020532737
aI827910970479611904
aI827910850367340544
aI827910801621127169
aI827910797078691840
aI827910786416836609
aI827910773687074816
aI827910556719919104
aI827910416533696513
aI827910292973686785
aI827910291308630016
aI827910260451115009
aI827910259859668992
aI827909986290331649
aI827909947530813441
aI827909870129147904
aI827909770787057664
aI827909767519666176
aI827909705632722944
aI827909690260611072
aI827909679489675264
aI827909677287608320
aI827909427302907904
aI827909415131029504
aI827909284293926916
aI827908939492765696
aI827908913504845826
aI827908909050519552
aI827908829178380290
aI827908690506301442
aI827908665822830593
aI827908548952731650
aI827908442488705026
aI827908410431635460
aI827908242705616897
aI827908213840420869
aI827908149369851904
aI827908142113705985
aI827908000690106368
aI827907602902298624
aI827907511009341440
aI827907321112252416
aI827907170977116160
aI827907080971497472
aI827907079084072960
aI827907055935750144
aI827906781879889921
aI827906618000023554
aI827906480246489088
aI827906304534577153
aI827905514495475712
aI827905446518411266
aI827905363987021824
aI827905288334405633
aI827905169438408705
aI827904914374455297
aI827904422567084032
aI827904361749741569
aI827904307370532864
aI827904243080130564
aI827904233433346049
aI827904197232357377
aI827904027291709442
aI827903845854478338
aI827903670213816320
aI827903668599005185
aI827903582330556416
aI827903550390988800
aI827903370732171265
aI827903327623081986
aI827903320614395904
aI827903238011756544
aI827903202641207301
aI827902956234227712
aI827902670442725376
aI827902493753483264
aI827902428393639938
aI827902415294828544
aI827902195202920448
aI827901839043592192
aI827901753106583552
aI827901647082897408
aI827901635259154433
aI827901464962093056
aI827901372469276673
aI827901338843545600
aI827901196191092737
aI827901059913891841
aI827901051621748736
aI827901023415046144
aI827901012728020992
aI827900969635684353
aI827900869467312128
aI827900840799264769
aI827900736990281729
aI827900711350448130
aI827900674897747968
aI827900501723332609
aI827900428755034112
aI827900359200874499
aI827900332810321920
aI827900300866551815
aI827900294289772545
aI827900272731103232
aI827900126047920134
aI827899881998147584
aI827899743896481794
aI827899743175077889
aI827899733104611329
aI827899669195919362
aI827899517982932994
aI827899275396931584
aI827899269109645313
aI827899177069867009
aI827899160796004354
aI827899132278878209
aI827899115430375425
aI827899044538236930
aI827899043695169536
aI827898492370743297
aI827898438859763714
aI827898185167360007
aI827897918220804096
aI827897678906421248
aI827897654550093825
aI827897517450940418
aI827897464862679040
aI827897353055133697
aI827897350811156480
aI827897305856630790
aI827897259744452609
aI827897225858670592
aI827897210306166784
aI827897084623933441
aI827896978646433793
aI827896759397576704
aI827896716284350465
aI827896420178857984
aI827896276805152768
aI827896076770430976
aI827895970641883140
aI827895936890310657
aI827895879508062208
aI827895837225340928
aI827895671059537920
aI827895566826950657
aI827895320159858688
aI827895258017124353
aI827895112868978690
aI827894909143306241
aI827894714070360064
aI827894569303957504
aI827894262939394049
aI827894213324980225
aI827894167003095045
aI827894076850786304
aI827894065031159808
aI827893822940082176
aI827893721878364160
aI827893497671909376
aI827893256331653120
aI827893137125302276
aI827893135812489216
aI827893001972281344
aI827893001166942210
aI827892923178024960
aI827892829405995008
aI827892652020469762
aI827892601277734912
aI827892533191655424
aI827892518331285506
aI827892424341061632
aI827891924145147905
aI827891878007861248
aI827891755810971648
aI827891536608292864
aI827891502818934785
aI827891422380584960
aI827891213600698368
aI827891173817729024
aI827891160022732800
aI827891101885403136
aI827891002149056512
aI827890847400198145
aI827890777279909889
aI827890670660702209
aI827890434731044867
aI827890258121486336
aI827890054303453184
aI827889678737108993
aI827889658038194176
aI827889442555887620
aI827889270211932161
aI827889209893609472
aI827889178381840385
aI827889162699337729
aI827888748113383424
aI827888742220324864
aI827888614352760832
aI827888557700345856
aI827888456416256000
aI827888294105083905
aI827888210210672640
aI827888185623588865
aI827888173569163264
aI827888002252861440
aI827887996632449025
aI827887910074609664
aI827887832442273797
aI827887794454401025
aI827887636983459840
aI827887533199675392
aI827887401989206017
aI827887255461175297
aI827887134598164488
aI827887104520765442
aI827887104084553729
aI827886957405601792
aI827886889118097408
aI827886752610320391
aI827886501283381252
aI827886214753681410
aI827886121048743936
aI827885964492148736
aI827885860007899136
aI827885801103036420
aI827885778038620160
aI827885740868698114
aI827885609746366464
aI827885470449356801
aI827885394293309440
aI827885124058566656
aI827884989907886081
aI827884923746934784
aI827884713352318976
aI827884689994158080
aI827884613817212928
aI827884488323633152
aI827884429448212480
aI827884423605518337
aI827884339648147458
aI827884267367694336
aI827884015789146112
aI827883767431835648
aI827883732069646338
aI827883711475630080
aI827883380335329280
aI827883246495080449
aI827883055314505729
aI827882860522700801
aI827882803014561792
aI827882681815924738
aI827882590216531968
aI827882362491064321
aI827882356325351425
aI827882340164710401
aI827882284351123458
aI827882179216732161
aI827882015508799488
aI827881866581700608
aI827881826710650881
aI827881763150102528
aI827881619784622082
aI827881584057520128
aI827881451920175105
aI827881418684583936
aI827881016513724417
aI827880948616265728
aI827880703278858242
aI827880654012612608
aI827880631979868162
aI827880423044894720
aI827880331403468800
aI827880313493807104
aI827880283055734786
aI827880264231747584
aI827879992814141440
aI827879979207839744
aI827879944256622592
aI827879890208878592
aI827879809434927105
aI827879791038722048
aI827879699166724098
aI827879536729714688
aI827879438419374082
aI827879400351883264
aI827879399521452032
aI827879353748975616
aI827879070599880704
aI827878992153866240
aI827878888156045313
aI827878867398488064
aI827878831860088832
aI827878737689640960
aI827878686133276673
aI827878667581812737
aI827878656856952832
aI827878386735411200
aI827878363679301632
aI827878341038452736
aI827878319865622529
aI827878173803237377
aI827877944953540609
aI827877872870313984
aI827877770537627648
aI827877758143430656
aI827877710601007106
aI827877637771108352
aI827877557894774785
aI827877361869844480
aI827877277253959681
aI827877206365974528
aI827877058495787008
aI827877047653511168
aI827876954623848448
aI827876869517213699
aI827876588742144000
aI827876520366632960
aI827876471293231105
aI827876260739219456
aI827876206829780993
aI827876004366602240
aI827875888641536002
aI827875850309746689
aI827875730067509248
aI827875656545476608
aI827875406850248704
aI827875284699475968
aI827875226977501189
aI827875210628042754
aI827875142978134016
aI827875128709091330
aI827874899112972292
aI827874844763160577
aI827874435864616960
aI827874380445278209
aI827874109929451520
aI827874109296095232
aI827873981663412224
aI827873906174337024
aI827873888533114880
aI827873767649075200
aI827873761277861890
aI827873738565771264
aI827873634689675264
aI827873603400110081
aI827873474932830209
aI827873391348703234
aI827873247685390336
aI827873210897137664
aI827873159663775744
aI827872958513369088
aI827872902615859200
aI827872716124516352
aI827872376373264386
aI827871919701647362
aI827871852898947072
aI827871851766505472
aI827871832397246467
aI827871614687727617
aI827871490427207680
aI827871347166572546
aI827871296306425856
aI827871194686820353
aI827871057461772288
aI827870960065847298
aI827870912653512704
aI827870822211657729
aI827870812736716800
aI827870802234183682
aI827870695401070592
aI827870199114260480
aI827870198120210432
aI827870141019017218
aI827870051424411648
aI827869936936706048
aI827869886789595136
aI827869107081117696
aI827868869494767616
aI827868392820457472
aI827868330983833602
aI827868198448029697
aI827868089790369792
aI827867732196593664
aI827867610935078912
aI827867507558141952
aI827867503212761088
aI827867155333050369
aI827866743406264320
aI827866731263750145
aI827866718324264960
aI827866643208495104
aI827866621326749697
aI827866615073087493
aI827866608223678464
aI827866518096601088
aI827866452405448705
aI827866404904906752
aI827865918613094401
aI827865785448222720
aI827865764954796032
aI827865588710125568
aI827865453330567169
aI827865428168994817
aI827865376537051136
aI827865216813764608
aI827865023041134592
aI827864916304461825
aI827864904380121089
aI827864859698163713
aI827864457598607361
aI827864310403723264
aI827864257693937664
aI827864212210847744
aI827864047961903104
aI827863924888498176
aI827863888628744194
aI827863818407641088
aI827863656675282946
aI827863440052068352
aI827863412348768257
aI827863134610259968
aI827862976875094017
aI827862973490331649
aI827862897619562496
aI827862748050632706
aI827862712906608640
aI827862625581199361
aI827862339810709507
aI827862241458417664
aI827862236106457090
aI827862197887959040
aI827862167710003200
aI827862022964523009
aI827861840789172225
aI827861808119742464
aI827861779585843200
aI827861720727171076
aI827861662011101184
aI827861607715840000
aI827861603211235328
aI827861397597982720
aI827861370033041408
aI827861319462375424
aI827861294430707712
aI827861258254823426
aI827860938674028544
aI827860931157848067
aI827860725473345536
aI827860712554897409
aI827860599677808640
aI827860389710827523
aI827860318944710656
aI827860309935288320
aI827860235779964928
aI827860173129646080
aI827860103781109761
aI827859937845977088
aI827859902852898816
aI827859822813011968
aI827859742454341633
aI827859662942908421
aI827859581955084289
aI827859371363332096
aI827859283450744832
aI827859245001498624
aI827859177431261184
aI827858994685419520
aI827858982396112901
aI827858866503303172
aI827858794633895936
aI827858764296515584
aI827858562168811520
aI827858536789078016
aI827858238913789952
aI827857996692725760
aI827857991957413890
aI827857980783751168
aI827857897526874112
aI827857820448124929
aI827857710498590720
aI827857481472831488
aI827857377777049604
aI827857292880146433
aI827857026227302401
aI827856805124530176
aI827856804952551425
aI827856760883048448
aI827856542615666690
aI827856344845795329
aI827856256371159041
aI827856253607149568
aI827855974224502785
aI827855657160364032
aI827855520426033152
aI827855476998160386
aI827855450725040129
aI827855395410628609
aI827855377677086720
aI827855330658963457
aI827855107400331265
aI827855102845321217
aI827855045341364225
aI827855037426696193
aI827854938139148288
aI827854702209560577
aI827854623595716608
aI827854522638807041
aI827854401956089857
aI827854262935965698
aI827854043347304449
aI827854031125102592
aI827853974359375872
aI827853922773643264
aI827853758113652736
aI827853659249721345
aI827853632322334724
aI827853460817195008
aI827853421503995905
aI827853067190145024
aI827853065294376960
aI827853064514236416
aI827852940681547777
aI827852876995248128
aI827852853834346496
aI827852786020786180
aI827852780807282689
aI827852677665144832
aI827852638230282240
aI827852610141052928
aI827852603526615040
aI827852426803867648
aI827852350631055361
aI827852249791680512
aI827852235803594756
aI827852119176802304
aI827852090861039618
aI827851762031788032
aI827851542267121664
aI827851488584200197
aI827851372443873281
aI827851233729839104
aI827851208735997953
aI827850765356113920
aI827850636062556160
aI827850564155355142
aI827850513815322624
aI827850451328565248
aI827850065255550976
aI827850041322795008
aI827850040873992192
aI827849990961770496
aI827849789953998848
aI827849600702771200
aI827849535913328640
aI827849517596803074
aI827849340811087873
aI827849263489175553
aI827849244593778688
aI827849214747082752
aI827849213358780416
aI827849132052246529
aI827849105745534976
aI827849073256517634
aI827848871472689152
aI827848662109868032
aI827848148613754880
aI827848081467125760
aI827848028207906816
aI827847990970875904
aI827847569371983872
aI827847376857608192
aI827847367382687744
aI827847312290541569
aI827846981166964736
aI827846872194772992
aI827846700702240769
aI827846689402789889
aI827846362175795205
aI827846187143270400
aI827846176531558401
aI827846043333226497
aI827846016036651008
aI827845796779405312
aI827845633667117056
aI827845502754549760
aI827845479220248580
aI827845428402073600
aI827845424035807232
aI827845416976785409
aI827845348332822529
aI827844338407370752
aI827843730711408640
aI827843611626762241
aI827843480625909760
aI827843273007984640
aI827843267265961984
aI827843258122375168
aI827843092833263616
aI827843074411864064
aI827843024235483136
aI827842794375041026
aI827842428107444225
aI827842383849091072
aI827842132249608193
aI827842100133765121
aI827842098590269440
aI827842088171626496
aI827842040381718528
aI827841998061178881
aI827841675447902211
aI827841640350019584
aI827841541955846144
aI827841531436490752
aI827841098601095168
aI827840846473154562
aI827840834989072386
aI827840422009569281
aI827840364031655936
aI827840334537310208
aI827840198423769088
aI827839990763814913
aI827839548327653377
aI827839358057066497
aI827839336376889344
aI827839123901841408
aI827839087159701504
aI827839064112033797
aI827838939427983362
aI827838776005230592
aI827838774335963136
aI827838727900774400
aI827838353445965824
aI827838348748132353
aI827838065540481024
aI827837926902026241
aI827837873797918720
aI827837863450570752
aI827837728540737536
aI827837231549259777
aI827837051785641984
aI827836807039614976
aI827836801536532480
aI827836626147631104
aI827836270449655808
aI827836179013836800
aI827836138727542784
aI827835907420065793
aI827835852587937793
aI827835786133397504
aI827835563059376129
aI827835456448557057
aI827835436533944321
aI827835419643543552
aI827835364903616512
aI827835279297937408
aI827835271077064704
aI827835011764195328
aI827834944147845120
aI827834890708213760
aI827834864728674304
aI827834796734820352
aI827834722520809473
aI827834445050834944
aI827834433793302528
aI827834093589106688
aI827833965260181504
aI827833508655685633
aI827833162306818049
aI827832876012011520
aI827832845070716928
aI827832674018525188
aI827832664887611394
aI827832452232134657
aI827832385274249216
aI827832198988431360
aI827832044466094080
aI827832031270801408
aI827831972655423488
aI827831638759452673
aI827831547973742592
aI827831384005890049
aI827831302321819648
aI827831275524349952
aI827831136646754305
aI827831129814265856
aI827831031310974976
aI827830914688376832
aI827830896501854208
aI827830844236632064
aI827830817292431360
aI827830731007213569
aI827830349308760064
aI827830171008909312
aI827830047289511936
aI827829775523786752
aI827829757689618432
aI827829739528282112
aI827829629310365696
aI827829349021782017
aI827829234240479232
aI827829094284922880
aI827828811181989889
aI827828806916390912
aI827828775102595073
aI827828569707528193
aI827828483921428480
aI827828321169862656
aI827828224948305920
aI827828193520398336
aI827828105612034049
aI827828075081695232
aI827827885721473024
aI827827761792286720
aI827827590027210752
aI827827573656788992
aI827827541738188800
aI827827418396233732
aI827827024618217472
aI827826970612342784
aI827826895551082496
aI827826790815105024
aI827826754777673730
aI827826427039010816
aI827826313301991424
aI827826211300712448
aI827826102156537856
aI827825976058982400
aI827825868684791808
aI827825702133186560
aI827825609942372352
aI827825525263593472
aI827825410549411840
aI827825300356620288
aI827825237622394880
aI827824879168847872
aI827824685014458368
aI827824613631606784
aI827824413533990912
aI827824189319020545
aI827824152052690946
aI827824143387222019
aI827823922011893760
aI827823255553720320
aI827823218065080320
aI827823205490577408
aI827822828158337024
aI827822718674468864
aI827822081823875074
aI827822081601593344
aI827821915045773312
aI827821629455601664
aI827821623478775808
aI827821621629050880
aI827821563714076672
aI827821512094781440
aI827821387012304896
aI827821179419373568
aI827820911583694849
aI827820641726377986
aI827820587007492096
aI827820332958568448
aI827819959552188417
aI827819183803158528
aI827819041398063104
aI827818947986735105
aI827818779430240257
aI827818688388669440
aI827818473921339393
aI827818051882143744
aI827817797568909312
aI827817591364321280
aI827817299885293569
aI827816775190462464
aI827816480741945344
aI827816415839281152
aI827816297190789120
aI827816024372281346
aI827815753034375168
aI827815632896946176
aI827815331917869056
aI827815329262878721
aI827814988437811200
aI827814926504837120
aI827814844699123712
aI827814486958624769
aI827814418243272704
aI827814412572643328
aI827814359569162240
aI827814200219156480
aI827813657799249920
aI827813617626185728
aI827812923120746496
aI827812830531506176
aI827812749161951233
aI827812450154213377
aI827812423159648256
aI827812295912935424
aI827812056460058624
aI827811759671144448
aI827811601113870336
aI827811456682954756
aI827811357739343872
aI827811258388713472
aI827811251900252164
aI827811070228168704
aI827811043577569280
aI827810646855122944
aI827810609504874497
aI827810243946115072
aI827810147053531137
aI827809835567624192
aI827809671339765761
aI827809255503851521
aI827809249132761088
aI827809097340837891
aI827809054726709248
aI827808584838811649
aI827808191643840512
aI827807972093022208
aI827807961976168449
aI827807696288088065
aI827807658048618496
aI827807497025110016
aI827807486333898752
aI827807453853138944
aI827807403873808385
aI827807325981442048
aI827806937316212736
aI827806922808098816
aI827806654636908544
aI827806622185570304
aI827806592313745408
aI827806191237619713
aI827805869001814016
aI827805828635820032
aI827805825209073664
aI827805608338399232
aI827805332357468160
aI827805117906829312
aI827805073992450048
aI827804935123267585
aI827804795863986178
aI827804744324374528
aI827804736271290368
aI827804705682288640
aI827804670919835648
aI827804600954712064
aI827804459514392576
aI827804174683344897
aI827803833363492864
aI827803146319753216
aI827803072214790146
aI827803036139581440
aI827802629229146113
aI827802559792439296
aI827802404112494592
aI827801954730516480
aI827801658692399104
aI827801624697516032
aI827801184832458752
aI827801069996630017
aI827800935594414080
aI827800226551439360
aI827800216447438849
aI827799411900239873
aI827799384884641792
aI827799163836444672
aI827798802199359489
aI827798650516623361
aI827798397188972545
aI827798298522165249
aI827798272353959936
aI827797797512548352
aI827796122202730496
aI827795705196580864
aI827794948636418048
aI827794663801290754
aI827794278780981248
aI827793442600341504
aI827793236936781824
aI827792978207002624
aI827792141342609409
aI827791552906985473
aI827791467485810690
aI827790227318120449
aI827789979011133440
aI827789959935492097
aI827789445793447938
aI827789258706583552
aI827789177005735936
aI827788988664672256
aI827787959214673922
aI827787869628538881
aI827787569257668608
aI827785472080506881
aI827785194275033088
aI827783810737635328
aI827783120535564289
aI827782451149815808
aI827781866832920576
aI827780648949673985
aI827779998933204992
aI827779994193633280
aI827779994051080193
aI827779129336532993
aI827778774376792064
aI827778730537926657
aI827777920559173632
aI827775999270072320
aI827774637769646080
aI827773105191919616
aI827768313493192704
aI827766752008351745
aI827765966784299008
aI827765700819353600
aI827765418538459136
aI827764250974228480
aI827763580862881792
aI827763171062587392
aI827760579238572032
aI827760469406527488
aI827759457857839104
aI827758047057543169
aI827757700536815616
aI827756210246021120
aI827755570073579525
aI827755445871849472
aI827753103063654400
aI827752368657817600
aI827751776208220160
aI827749482993479680
aI827748646967975937
aI827748270663413760
aI827748055117991936
aI827745638381142016
aI827745368632881152
aI827745187082432513
aI827743831630168065
aI827742210586054657
aI827741300338335744
aI827740892371025920
aI827740454057828352
aI827740114684108800
aI827738337935028224
aI827738271790858241
aI827735910108258305
aI827734357246955521
aI827733855314526208
aI827733392817061888
aI827733233404112896
aI827731911279783937
aI827731626138406912
aI827731556559101952
aI827730974423318530
aI827730844911562752
aI827730797268463621
aI827730744210575360
aI827729708892688384
aI827729172588068865
aI827728822531403777
aI827728653417058306
aI827727367045001216
aI827725852720955392
aI827724728622280705
aI827723919209684992
aI827721575709433856
aI827720510247202816
aI827719657712865281
aI827718748358504448
aI827718081178906625
aI827717769189785600
aI827717161850388481
aI827716756496084992
aI827716111651184641
aI827715508590014465
aI827715338473242624
aI827714913737068544
aI827714318997204992
aI827712481955037184
aI827712460278874112
aI827711967309623296
aI827711817736654848
aI827710915399270400
aI827710504139382784
aI827710381183344640
aI827710370345316352
aI827710266469183488
aI827709929138036737
aI827709047818354690
aI827709032320282624
aI827708872819408901
aI827708766527377408
aI827708591855566848
aI827706837478801408
aI827706279456022528
aI827705536359579649
aI827704995189370880
aI827704476777717761
aI827704254987173888
aI827703904888619008
aI827703589187502082
aI827703244960960518
aI827702627890769922
aI827702046019244032
aI827700648049250304
aI827699192114114560
aI827699050296250368
aI827699027697422337
aI827698240648802304
aI827697088628662272
aI827696988066029569
aI827696000567476226
aI827695972675420160
aI827695943206191105
aI827695830509486080
aI827695543019257856
aI827695509288710147
aI827694827907080192
aI827694518984024064
aI827693352967663616
aI827692855946788866
aI827692544045760517
aI827692414420779009
aI827692077563727872
aI827691936781893633
aI827691765213851648
aI827691639724503041
aI827691224001871872
aI827690739270373378
aI827690291775672320
aI827690139233165312
aI827690022266667008
aI827689937470369792
aI827689202951344128
aI827689185934983168
a.