(lp0
I828025263321657348
aI828025128797741057
aI828025087815274496
aI828025006626058241
aI828024990142443522
aI828024724710182912
aI828024709761658880
aI828024543847600128
aI828024426356686848
aI828024390315102208
aI828024221070741506
aI828024212824739841
aI828024204704505858
aI828024196349444101
aI828024193312751620
aI828023983140372484
aI828023956724662272
aI828023872347897858
aI828023789988478983
aI828023192086335490
aI828023085735563265
aI828023016785326081
aI828023016558845953
aI828022929304727552
aI828022592414023681
aI828022558171729925
aI828022423983419392
aI828022419281629188
aI828022330689470468
aI828022327585697792
aI828022290730405889
aI828022283755220994
aI828022142138773505
aI828021951947997184
aI828021893395599360
aI828021865809641472
aI828021723807232000
aI828021588780052480
aI828021524024197122
aI828021340061986816
aI828021336391966720
aI828021222189498369
aI828021138152423425
aI828021043608555520
aI828021034725019648
aI828020402597330944
aI828020302307287041
aI828020302135382016
aI828020290819088385
aI828020269331660803
aI828020243704475649
aI828020044521156608
aI828019739532414976
aI828019737829449728
aI828019711002738692
aI828019652349554689
aI828019541242413061
aI828019315899301888
aI828019217433784321
aI828019202116218881
aI828019021324906501
aI828018982041026560
aI828018953691791364
aI828018895596437504
aI828018771730259969
aI828018707758739457
aI828018695200980993
aI828018692042682371
aI828018452157849600
aI828018419102527488
aI828018247438102528
aI828018169189113856
aI828018133491412992
aI828018098192121856
aI828018052943970314
aI828018031003574272
aI828017990402727936
aI828017960275103749
aI828017953383784449
aI828017863906693120
aI828017810202845184
aI828017755324608512
aI828017721157832706
aI828017718267871234
aI828017676828147716
aI828017573799350272
aI828017423970398209
aI828017319288905729
aI828017312146010114
aI828017276012097539
aI828017266562318339
aI828016918791647232
aI828016685995134976
aI828016615711182849
aI828016604441088001
aI828016528935235586
aI828016483343163392
aI828016451076374529
aI828016392104452096
aI828016274743627776
aI828016272441016320
aI828016180678033409
aI828016167298224128
aI828016088004907012
aI828016075501613057
aI828015739307163648
aI828015648370544644
aI828015610894356486
aI828015429188780036
aI828015421605371904
aI828015375547768833
aI828015327481053185
aI828015253061525504
aI828015228956839937
aI828015210736840704
aI828015205288439808
aI828015116088143872
aI828015016720871424
aI828014933883441153
aI828014929961697280
aI828014913629122560
aI828014905756364800
aI828014778249576456
aI828014750042845184
aI828014677296893953
aI828014578676142085
aI828014436891910144
aI828014358198366209
aI828014260936663041
aI828014236832059392
aI828014190480719873
aI828014190094868480
aI828014101674786817
aI828014090304024578
aI828014063124934656
aI828014046913896448
aI828014017146937346
aI828013950046441472
aI828013787986948096
aI828013731716136961
aI828013725114302464
aI828013705455607809
aI828013600652541952
aI828013592356102144
aI828013589801865219
aI828013557035958273
aI828013503869046784
aI828013464757104642
aI828013149450301441
aI828013090356748288
aI828013065186729984
aI828012992000360449
aI828012878745702401
aI828012840757948420
aI828012839319248897
aI828012831647875072
aI828012790849863680
aI828012700986916866
aI828012691033882629
aI828012670272028673
aI828012642006601729
aI828012581382127617
aI828012498871787521
aI828012466978291712
aI828012464071655429
aI828012448905052161
aI828012303836643328
aI828012204997931008
aI828012140665720833
aI828012139705225221
aI828012080762613760
aI828012056263684097
aI828012036156223488
aI828011892912320512
aI828011817855283201
aI828011759793471489
aI828011592663044101
aI828011440602750977
aI828011430716780545
aI828011208821313536
aI828011121961492480
aI828011065883639808
aI828011047453917185
aI828011044345901058
aI828010895687180288
aI828010868805865473
aI828010842163658752
aI828010779295223809
aI828010774383751168
aI828010701776117760
aI828010697254658048
aI828010658734145536
aI828010620427583493
aI828010614442303489
aI828010498721476609
aI828010478676930565
aI828010420535439361
aI828010303724077056
aI828010186086440960
aI828010178918412290
aI828010147419152384
aI828010041512960000
aI828010004032716800
aI828009913981005826
aI828009716404060160
aI828009701610835968
aI828009699610071040
aI828009685420744704
aI828009571792908289
aI828009542873128960
aI828009362669043713
aI828009349452808192
aI828009196293586944
aI828009170842550272
aI828009161044660224
aI828009050864500737
aI828009019163934721
aI828008953925758977
aI828008953409839105
aI828008922871119873
aI828008904240005120
aI828008802846961666
aI828008714879774721
aI828008712430313477
aI828008671955279873
aI828008561720586240
aI828008544855285760
aI828008478669160450
aI828008436436709377
aI828008130550317056
aI828008083460911104
aI828007866535669764
aI828007601766006785
aI828007498795851777
aI828007301449654272
aI828007230523977733
aI828007212660424704
aI828007160625950721
aI828006907579351041
aI828006826318954496
aI828006806395969537
aI828006797394976768
aI828006786347257857
aI828006780458385410
aI828006766503931904
aI828006680470249472
aI828006671280697345
aI828006666767564800
aI828006591844712449
aI828006357903241218
aI828006314282455040
aI828006270334562305
aI828006225757556736
aI828006217062694912
aI828006208858624001
aI828006181113307138
aI828006125001908225
aI828006053291913217
aI828006043535998978
aI828006040679620608
aI828005952712482820
aI828005790615269377
aI828005734713524227
aI828005645848891393
aI828005614009843714
aI828005563443322880
aI828005548612259841
aI828005239324286978
aI828005162207805443
aI828005116737380357
aI828005095115747329
aI828005074865635329
aI828004991529009152
aI828004936046739456
aI828004918686601216
aI828004762469670912
aI828004741342982145
aI828004675202998272
aI828004572035739648
aI828004312735440898
aI828004158896795649
aI828004088654737409
aI828004019767562241
aI828003995075612672
aI828003983314808833
aI828003822194814976
aI828003800447328258
aI828003733967687681
aI828003509299707904
aI828003371982475265
aI828003351379968000
aI828003340298682368
aI828003204176691200
aI828003179895910406
aI828002927168126980
aI828002911519125505
aI828002888442118144
aI828002856745713664
aI828002700994428929
aI828002668903792641
aI828002656778063873
aI828002553325580288
aI828002522090598400
aI828002517703344129
aI828002430159818754
aI828002381682053128
aI828002376716017664
aI828002244192829442
aI828002230599086082
aI828002215369510912
aI828002192170815489
aI828002068564697093
aI828002043562455040
aI828001994422026241
aI828001931629043713
aI828001855364091908
aI828001765568176129
aI828001636052254720
aI828001542741565440
aI828001373702733825
aI828001275539234816
aI828001142772736001
aI828001139920617472
aI828001135126515713
aI828001130122772481
aI828001101899296768
aI828001036220645377
aI828000983338848261
aI828000930746474499
aI828000842607448064
aI828000786051452928
aI828000735556202497
aI828000597748101121
aI828000593167908864
aI828000588331937793
aI828000521797632000
aI828000467653373954
aI828000380168572930
aI828000310291525632
aI828000262589673473
aI828000228620001280
aI828000092967862272
aI828000053017137152
aI827999993717993473
aI827999991956381702
aI827999940362268678
aI827999902525431809
aI827999842563665921
aI827999781716901890
aI827999768207097856
aI827999754386817024
aI827999745285165058
aI827999699399491586
aI827999660795117569
aI827999650389049344
aI827999602167148549
aI827999570785398785
aI827999440648691712
aI827999279692279808
aI827999030789668864
aI827999006227849220
aI827998934178131968
aI827998898090344449
aI827998850770141185
aI827998850354917377
aI827998808550289408
aI827998800732110848
aI827998755366588416
aI827998743375052800
aI827998733174464513
aI827998700555423744
aI827998559106695168
aI827998506048700417
aI827998408740859905
aI827998378504097792
aI827998332610048001
aI827998304650797057
aI827998242994606080
aI827998190737747969
aI827998179010437120
aI827998126279651328
aI827997938035130369
aI827997828865744898
aI827997803729268736
aI827997716294819840
aI827997663773806592
aI827997633012723714
aI827997593871474688
aI827997564653928448
aI827997510006345729
aI827997488732848130
aI827997372147974144
aI827997342561349636
aI827997305492103169
aI827997243798089728
aI827997193302863872
aI827997178417160193
aI827997167482785792
aI827997079641395200
aI827997070816591873
aI827997070657208320
aI827996993935048704
aI827996866348515329
aI827996803169656832
aI827996723704430592
aI827996498017259521
aI827996478467620864
aI827996440026808320
aI827996431181029380
aI827996344111480833
aI827996335517335552
aI827996228952657920
aI827996162825269249
aI827996069271306240
aI827995934474764288
aI827995844033052672
aI827995826022645761
aI827995805025984512
aI827995724277223425
aI827995620828917761
aI827995490260221952
aI827995393950629890
aI827995348882829313
aI827995289973878790
aI827995198106001409
aI827995131202695172
aI827995115440525312
aI827995111938256896
aI827995011023302656
aI827994968346206209
aI827994954471464960
aI827994883713531905
aI827994848410079232
aI827994833490944001
aI827994736518627328
aI827994708341305345
aI827994692604276741
aI827994592507199488
aI827994556855640066
aI827994553479213056
aI827994500219932672
aI827994493202886656
aI827994418661691400
aI827994402916335618
aI827994351930327040
aI827994311337840640
aI827994187329105922
aI827994003656306688
aI827993988892336130
aI827993986967150594
aI827993981812408320
aI827993965815332864
aI827993955539288065
aI827993922857230340
aI827993906239397894
aI827993830121160705
aI827993741499719680
aI827993733450850305
aI827993633865363456
aI827993612747153408
aI827993521755979777
aI827993498158759941
aI827993377589297152
aI827993308622356481
aI827993282072436736
aI827993263533617152
aI827993260777955328
aI827993186182238208
aI827993079219154946
aI827992808917180416
aI827992579895652354
aI827992541261864960
aI827992464053121025
aI827992282787901440
aI827992264257503234
aI827992193092767745
aI827992070396723201
aI827992042022244358
aI827991991287963649
aI827991984031821825
aI827991960191397889
aI827991916558028801
aI827991895494295553
aI827991892445057024
aI827991817496961024
aI827991784315826176
aI827991690883584001
aI827991637724905472
aI827991499929485312
aI827991493331865600
aI827991409277956097
aI827991313907904512
aI827991288310034432
aI827991079421112325
aI827990931097939968
aI827990764676403202
aI827990513835995137
aI827990402561105920
aI827990326958776320
aI827990285670039554
aI827990208759074817
aI827990204799676420
aI827990124822687745
aI827990020204142592
aI827989999845044224
aI827989997844307968
aI827989974146490368
aI827989905657708544
aI827989898665852928
aI827989806315601921
aI827989740049801222
aI827989646005133312
aI827989643119456256
aI827989390601416704
aI827989373358596098
aI827989344002637824
aI827989185021804544
aI827989090767339521
aI827989042960666624
aI827989034291101696
aI827988987545583616
aI827988933736853504
aI827988885380665344
aI827988878233583619
aI827988769374666757
aI827988685064962048
aI827988586079408128
aI827988465849602049
aI827988464360624128
aI827988438456610817
aI827988437710012416
aI827988356629946368
aI827988142938587138
aI827987940987064328
aI827987815220654080
aI827987812247076866
aI827987796262526977
aI827987631506128896
aI827987527751651328
aI827987499117056000
aI827987498018172929
aI827987436714262529
aI827987394007805952
aI827987347811794945
aI827987328345976832
aI827987210578382851
aI827987076746473472
aI827986994005422080
aI827986965677142018
aI827986916754731008
aI827986857694810112
aI827986814329880577
aI827986736827473920
aI827986731370704901
aI827986707358294023
aI827986601632481280
aI827986593394917377
aI827986529897349120
aI827986422627958784
aI827986254096695298
aI827986206403227649
aI827986196601196544
aI827986093857447936
aI827986063432044544
aI827985984352575489
aI827985961946583040
aI827985937292468224
aI827985880463896576
aI827985825094856704
aI827985821269639168
aI827985787010547713
aI827985759969931266
aI827985735181533191
aI827985665052774400
aI827985525646753793
aI827985438161960961
aI827985413562388482
aI827985241365176321
aI827985112335777793
aI827985082044575744
aI827985079498571777
aI827985061253373952
aI827984854318977027
aI827984827538370560
aI827984760156856320
aI827984679802433536
aI827984661808873474
aI827984492862255105
aI827984419478716416
aI827983965822808069
aI827983890233098241
aI827983840094326785
aI827983828203487232
aI827983788978356225
aI827983744560668672
aI827983636829974528
aI827983629171175430
aI827983620438638594
aI827983545708793857
aI827983540230975488
aI827983531364274178
aI827983495892975617
aI827983406520729600
aI827983398580940800
aI827983280859389954
aI827983236240400384
aI827983149036605440
aI827982908967251968
aI827982855347326978
aI827982834921009152
aI827982830038827009
aI827982780495753216
aI827982748098899969
aI827982693287735296
aI827982648354144256
aI827982449493831680
aI827982356996878336
aI827982256471998464
aI827982210766663689
aI827982190134837248
aI827982176356593665
aI827982034408701952
aI827982002855018497
aI827981953567698944
aI827981817747615748
aI827981733790363651
aI827981723493400576
aI827981696016535552
aI827981623077568517
aI827981593545474048
aI827981576759828480
aI827981529179648001
aI827981519419498496
aI827981153059688448
aI827981117424812033
aI827981110743269376
aI827981011787063296
aI827980960591446017
aI827980938860699649
aI827980898448633856
aI827980887295918081
aI827980699001057280
aI827980641241292800
aI827980613168799744
aI827980563785064449
aI827980558634512385
aI827980536794664960
aI827980387695591424
aI827980379860656128
aI827980339830218754
aI827980325204660224
aI827980319265583104
aI827980301796311042
aI827980160129449984
aI827980150461575168
aI827980136825884674
aI827980101992271872
aI827979822890508289
aI827979820403417090
aI827979818461392896
aI827979671350415360
aI827979587745411072
aI827979565670739969
aI827979462188867584
aI827979367351513088
aI827979193552138240
aI827979174681931776
aI827979163579666437
aI827979154985512961
aI827979077961338881
aI827978862780960768
aI827978823689961472
aI827978778982903808
aI827978711572021248
aI827978661903134725
aI827978551500664832
aI827978546232565760
aI827978420265029632
aI827978213322346498
aI827978085018517508
aI827977867027947521
aI827977796651716612
aI827977795284385792
aI827977780629495812
aI827977755237183489
aI827977734156644353
aI827977732923469824
aI827977723712770050
aI827977618360266752
aI827977486332002304
aI827977413309112320
aI827977205120630786
aI827977193817010177
aI827977181775220736
aI827977144127090690
aI827977125995085824
aI827977092734152705
aI827977085733867521
aI827977007032066048
aI827977002946797569
aI827976972936548353
aI827976962362716161
aI827976764009885696
aI827976623291039745
aI827976449105788932
aI827976404792930306
aI827976323847032832
aI827976258550128641
aI827976176312385537
aI827976175452581888
aI827976162378911744
aI827976008229863424
aI827975849181868032
aI827975817003151361
aI827975795578638336
aI827975792353226753
aI827975732454424577
aI827975588791087104
aI827975417156030464
aI827975261387886592
aI827975220359208961
aI827975182174318596
aI827975097243811841
aI827975077090230275
aI827975063894884352
aI827975063764873221
aI827974964322115584
aI827974748449685505
aI827974697212076034
aI827974645425004544
aI827974637124460544
aI827974615901282305
aI827974605923024898
aI827974573207482372
aI827974517846835200
aI827974440009007104
aI827974309855510529
aI827974302058344448
aI827974275927777281
aI827974243262595072
aI827974141236146177
aI827974131266228224
aI827974099645452288
aI827973981600890885
aI827973956250587136
aI827973776914649089
aI827973641757405184
aI827973363985428482
aI827973181164118017
aI827973163845709824
aI827973137803444224
aI827973038503239682
aI827973010917294081
aI827972957486067714
aI827972879291662336
aI827972777214935041
aI827972735154454528
aI827972662727163905
aI827972538047283204
aI827972505205891072
aI827972143501737985
aI827972060097941506
aI827972013989982209
aI827971969194799104
aI827971968846745602
aI827971884411150336
aI827971870339239936
aI827971773471801345
aI827971700276994049
aI827971700054712320
aI827971630701871104
aI827971511520669697
aI827971466595598337
aI827971420441415680
aI827971399352467456
aI827971247761977345
aI827971167621365760
aI827971160532983809
aI827971008359440384
aI827971003749978114
aI827970994094616577
aI827970885017444353
aI827970857658155012
aI827970442753409024
aI827970256916316160
aI827970218936897537
aI827970087378415616
aI827970079723749377
aI827969971040960513
aI827969956880973826
aI827969857002098688
aI827969816824786944
aI827969811661647872
aI827969786009227265
aI827969740962422784
aI827969631545606145
aI827969483989975040
aI827969462175416320
aI827969441770110976
aI827969250178510848
aI827969246739181569
aI827969233011224578
aI827969211842560000
aI827969143945170946
aI827969113456779264
aI827968999610789888
aI827968990190379008
aI827968972159086592
aI827968970573623298
aI827968843171635201
aI827968770404732932
aI827968770350145536
aI827968622735847425
aI827968555845087232
aI827968334805266432
aI827968331424608256
aI827968239988781063
aI827967951240359936
aI827967917828481025
aI827967826468229121
aI827967790481018880
aI827967467934851072
aI827967189919621121
aI827967016925556736
aI827966926047567876
aI827966876466692098
aI827966549059330052
aI827966497389690883
aI827966396541894657
aI827966322030104576
aI827966221479985153
aI827966063732203520
aI827966022347063301
aI827965828041687041
aI827965790083227649
aI827965787549765632
aI827965480946241537
aI827965264981524480
aI827965054142312450
aI827965044445048833
aI827965036479995904
aI827964891348758531
aI827964785086099456
aI827964706761670656
aI827964479828848642
aI827964266615566338
aI827964213071077377
aI827964205424844802
aI827964163465080832
aI827964084691824642
aI827964083492237312
aI827964050214645760
aI827964004052168706
aI827963872321605632
aI827963803040088064
aI827963592221872132
aI827963558256340992
aI827963404119846913
aI827963356422275072
aI827963284087308288
aI827963246267203589
aI827963178537590786
aI827963087667990529
aI827963046123429888
aI827963000241926144
aI827962999466033153
aI827962867022495744
aI827962725972246528
aI827962716727943170
aI827962643885518848
aI827962619755642880
aI827962448191819777
aI827962154653462529
aI827962098743394305
aI827962071945986049
aI827961963749720065
aI827961901074219008
aI827961898721300480
aI827961897538486276
aI827961637911064577
aI827961630008995840
aI827961563042680832
aI827961539680403457
aI827961377549643781
aI827961345614180352
aI827961313754304512
aI827961239829671937
aI827961234091810816
aI827961212835135488
aI827961043498463233
aI827961031146270720
aI827960958731636741
aI827960926221504513
aI827960736446050304
aI827960730695692288
aI827960616648310784
aI827960555004641280
aI827960512784773121
aI827960509207048192
aI827960413140742151
aI827960393582645248
aI827960377442988032
aI827960371751317505
aI827960320664727553
aI827960162325495808
aI827960069568491520
aI827959975397949442
aI827959903297875969
aI827959886327775232
aI827959874151657473
aI827959847849189377
aI827959768832696320
aI827959625664364544
aI827959494378418183
aI827959214672855041
aI827959198994538496
aI827959072158789633
aI827958928868777985
aI827958784303693824
aI827958704595148802
aI827958695254437892
aI827958694176575490
aI827958693958471680
aI827958693862002693
aI827958693861920768
aI827958661674840072
aI827958524135227392
aI827958492820561921
aI827958490622746626
aI827958388613083136
aI827958153568518144
aI827958049956564992
aI827958037625331713
aI827958000430223361
aI827957940988555265
aI827957907761291265
aI827957866703286272
aI827957709450387456
aI827957642328997889
aI827957630073241600
aI827957601602326528
aI827957340834000896
aI827957186403954688
aI827957049938042885
aI827956958372184064
aI827956957717864450
aI827956606394630145
aI827956572827611136
aI827956571841953792
aI827956567278497798
aI827956426882564097
aI827956338022051841
aI827956284485951488
aI827956272813195264
aI827956209944780803
aI827956185622073344
aI827956178927902720
aI827956169079664640
aI827956104432873472
aI827955959607730178
aI827955943170252800
aI827955794347978752
aI827955780808802306
aI827955716795273216
aI827955381993353216
aI827955284303872004
aI827955106834423810
aI827955056381198337
aI827954966342017026
aI827954911849619456
aI827954901263273984
aI827954874033790977
aI827954833655226368
aI827954775983534081
aI827954651916095488
aI827954587877388289
aI827954545036840960
aI827954535016574976
aI827954445908598785
aI827954399544803328
aI827954396071919616
aI827954384306831361
aI827954349846446081
aI827954336034459648
aI827954254094671872
aI827954226210992129
aI827954199384227841
aI827954185333252096
aI827954185316528128
aI827954106778136576
aI827954039606358016
aI827953995075485697
aI827953991476719616
aI827953953388261376
aI827953897843126276
aI827953845028401152
aI827953833649328129
aI827953798236745731
aI827953673988894721
aI827953485178101761
aI827953480979644416
aI827953313022894082
aI827953185566363648
aI827953144730628098
aI827953056960626689
aI827952875066257412
aI827952842778562560
aI827952829440495616
aI827952824956895233
aI827952781294202881
aI827952744384360456
aI827952738902429701
aI827952624150405122
aI827952544085327872
aI827952469548335104
aI827952379408556032
aI827952349876457474
aI827952340997177344
aI827952302807982080
aI827952107584110592
aI827952081919209472
aI827952035324653573
aI827952026231373827
aI827951997273911296
aI827951981138411522
aI827951974695960576
aI827951911957590017
aI827951909856223232
aI827951859583311872
aI827951841996636162
aI827951795947335680
aI827951741090009088
aI827951710991679490
aI827951683762257921
aI827951585640734721
aI827951454510018560
aI827951399191314433
aI827951227812065281
aI827951225266171904
aI827951178101186561
aI827951072274702336
aI827951067195437056
aI827951059129753600
aI827950973008084996
aI827950966418919424
aI827950954712616960
aI827950886487990272
aI827950762147864577
aI827950709362540544
aI827950698105028609
aI827950686797197315
aI827950665125199872
aI827950578433196032
aI827950319640391680
aI827950193412825088
aI827950052442259460
aI827950029084164096
aI827949977179664384
aI827949886591082498
aI827949850297778176
aI827949749475086336
aI827949711785091072
aI827949711701188609
aI827949670878085120
aI827949580327219200
aI827949572454510592
aI827949569606553601
aI827949460114247681
aI827949455752253440
aI827949444385632256
aI827949438752653312
aI827949427281260547
aI827949388748177412
aI827949370012229634
aI827948935822065664
aI827948610969096192
aI827948504815378433
aI827948493637615620
aI827948460511002624
aI827948206315159552
aI827948202523500546
aI827948197368721409
aI827948109170876416
aI827948094067191808
aI827947908305666048
aI827947794312867840
aI827947777669943297
aI827947742043525120
aI827947690617085953
aI827947387905777664
aI827947325234544641
aI827947314325155841
aI827947254430519296
aI827947083785240576
aI827947071319719938
aI827947048699826177
aI827946828993789957
aI827946789185675264
aI827946677441015809
aI827946658721828864
aI827946570867998724
aI827946555776892930
aI827946428924305410
aI827946312456949761
aI827946121511202817
aI827946114552823809
aI827945681352523776
aI827945599756537857
aI827945516294086657
aI827945434903674880
aI827945236991242240
aI827945011526381568
aI827944843125149696
aI827944839673155585
aI827944809658740736
aI827944646886227970
aI827944569887145986
aI827944428539088901
aI827944269486845953
aI827944232283406336
aI827944179401707521
aI827944058576322561
aI827943841839869952
aI827943767093161984
aI827943649472344064
aI827943646490136576
aI827943315802902533
aI827943260337344513
aI827943091801845760
aI827943091713761285
aI827943012860825604
aI827942914927927296
aI827942901409800192
aI827942872607576065
aI827942824989569024
aI827942710543806465
aI827942422864855040
aI827942405299134464
aI827941940167573505
aI827941885419286529
aI827941851495796740
aI827941813424160770
aI827941722013519872
aI827941707077517312
aI827941695878811649
aI827941543877214210
aI827941363270430720
aI827941267376050176
aI827941055052017666
aI827941036504793088
aI827941012865695745
aI827940969446273024
aI827940944456605697
aI827940866706784256
aI827940795844001792
aI827940718748508160
aI827940646161940481
aI827940642374434818
aI827940261414191104
aI827940241289904133
aI827940217244020737
aI827940098507493377
aI827940051296337921
aI827940018895351811
aI827939954382761986
aI827939876813279233
aI827939864360448002
aI827939842935894016
aI827939672605212672
aI827939527952039936
aI827939518032572416
aI827939405675524102
aI827939240382177280
aI827939227396632577
aI827939139098124288
aI827938978779258880
aI827938965068062722
aI827938959015735296
aI827938911582294018
aI827938897812402176
aI827938891038605312
aI827938874026508288
aI827938737275404288
aI827938600323055616
aI827938342625013760
aI827938315865354241
aI827938234273509376
aI827938206490513412
aI827938089855234049
aI827938035153174529
aI827937997953888258
aI827937973475880970
aI827937875958362112
aI827937616632958976
aI827937611998232577
aI827937601990565888
aI827937520730198018
aI827937392891920384
aI827937376479625216
aI827937196762132480
aI827937068114407427
aI827936969833455622
aI827936959318339584
aI827936943015133184
aI827936853072420867
aI827936673552093185
aI827936667600293889
aI827936626173210624
aI827936575724085248
aI827936479116660737
aI827936452336029697
aI827936396270768129
aI827936384803549186
aI827936295137730562
aI827936184223531008
aI827936182881361928
aI827936132222562304
aI827935984994156545
aI827935643913289729
aI827935541110898689
aI827935505681620993
aI827935440539893760
aI827935371266756610
aI827935237724336129
aI827935182611214336
aI827935150583472129
aI827935101132619784
aI827935034191519744
aI827934980374458368
aI827934844625772545
aI827934714384232451
aI827934702380150787
aI827934694104846337
aI827934628212310016
aI827934560604286977
aI827934477280223232
aI827934360364007424
aI827934156642512896
aI827934012731691012
aI827934012601688065
aI827933747823644672
aI827933638184538114
aI827933591036366849
aI827933221279105024
aI827933218322145281
aI827933167373922304
aI827932980140187652
aI827932973697753088
aI827932934476791809
aI827932806848376833
aI827932732529504260
aI827932633485103104
aI827932342442418176
aI827932325551931393
aI827932242425024514
aI827932228206415872
aI827932210720288770
aI827932076162875393
aI827932035947831296
aI827932024560287744
aI827931914426339328
aI827931831152627712
aI827931630773886976
aI827931607986221056
aI827931602084847617
aI827931494203133952
aI827931433851318272
aI827931427664715776
aI827931379937705985
aI827931322572210178
aI827931110214627328
aI827931082079223808
aI827931056493953025
aI827931053134381057
aI827931012751519744
aI827930878412197890
aI827930798129025025
aI827930790344454144
aI827930727505346560
aI827930690817777666
aI827930690129899521
aI827930674560647168
aI827930223563902977
aI827929991811837953
aI827929969305202688
aI827929837331480577
aI827929800362848257
aI827929692971859968
aI827929611291987968
aI827929602236489729
aI827929387819483137
aI827929237613060096
aI827929122328416256
aI827928825447272449
aI827928644190347265
aI827928552892932096
aI827928491509297153
aI827928489340858368
aI827928310785122305
aI827928231554777088
aI827928187648802816
aI827928138546032640
aI827927854138654720
aI827927838066110464
aI827927750677757953
aI827927716905238528
aI827927597149458434
aI827927548814356482
aI827927495383085057
aI827927480514277378
aI827927471504945152
aI827927375577022465
aI827927267108077568
aI827927127412588546
aI827926869538385920
aI827926855294578688
aI827926842124488705
aI827926741104619520
aI827926612083605505
aI827926540314877952
aI827926540088401921
aI827926489601568768
aI827926274513461248
aI827926208268607488
aI827926196965015553
aI827926066832539648
aI827925971051347971
aI827925969239437312
aI827925943155097601
aI827925806282371073
aI827925730893897729
aI827925598068670464
aI827925417071955968
aI827925403260026881
aI827925398486970368
aI827925366773837824
aI827925195545509888
aI827925144303710209
aI827925125420822531
aI827925101811290115
aI827925065933213696
aI827924987856158721
aI827924967639629824
aI827924910978654208
aI827924900937682944
aI827924854745743361
aI827924435369869313
aI827924343103582210
aI827923928588877828
aI827923924130336768
aI827923858250461185
aI827923783780618241
aI827923679606607872
aI827923578452582402
aI827923477743206400
aI827923384847720449
aI827923317504012288
aI827923307576119296
aI827923068672679936
aI827922982878248960
aI827922880964894721
aI827922765877501954
aI827922752745177088
aI827922720310575104
aI827922697803948033
aI827922516014411776
aI827922429674676224
aI827922305405771776
aI827922237734920192
aI827922216473997314
aI827922201148059648
aI827922188074381312
aI827922071510474757
aI827921988471685120
aI827921895811002368
aI827921865310089216
aI827921751115984896
aI827921741682966528
aI827921669213798401
aI827921660456103937
aI827921593221443586
aI827921584459546624
aI827921566298152960
aI827921485020921856
aI827921483833942016
aI827921357212098560
aI827921354041257984
aI827921350815793152
aI827921214060392448
aI827921075321331712
aI827921073526169601
aI827920986804723713
aI827920948976353281
aI827920916659187713
aI827920868311498752
aI827920833951698944
aI827920818038530048
aI827920680117235713
aI827920660374646785
aI827920616409952256
aI827920545094234113
aI827920469479321600
aI827920355616497667
aI827920292148310016
aI827920195767386116
aI827920149231570944
aI827920114674724864
aI827920074707181568
aI827919991563493377
aI827919804430422016
aI827919752374972416
aI827919742203731968
aI827919737292255234
aI827919729738338304
aI827919706434723841
aI827919677552807941
aI827919609961578497
aI827919591724695555
aI827919588750917632
aI827919522082521088
aI827919503933763584
aI827919458916298752
aI827919412921528320
aI827919303760568320
aI827919100139692033
aI827918960200974336
aI827918949174112257
aI827918854831620096
aI827918840080244737
aI827918735822434305
aI827918671544778752
aI827918641689669632
aI827918610744143874
aI827918518452678656
aI827918498940780547
aI827918356036591620
aI827918340479913984
aI827918282200010752
aI827918256824545280
aI827918125962293253
aI827917989903204352
aI827917910878351360
aI827917836077117442
aI827917813344006144
aI827917663938760705
aI827917334023122946
aI827917253731430400
aI827917219933908992
aI827917083442823169
aI827917067210874880
aI827916905780506626
aI827916781083844609
aI827916746707365888
aI827916679640399872
aI827916597603995650
aI827916527353618432
aI827916450866331648
aI827916378694963201
aI827916342670028800
aI827916341420183552
aI827916247820025860
aI827915980823203840
aI827915947449122819
aI827915936007065600
aI827915825176776705
aI827915543902568449
aI827915536038244358
aI827915492216229892
aI827915436381593601
aI827915207221637125
aI827915199260790784
aI827915192986169345
aI827915060441923585
aI827914929265049600
aI827914873782861824
aI827914674708570112
aI827914616521052160
aI827914376388759553
aI827914214199156736
aI827914182246952960
aI827914172432314368
aI827914151997669376
aI827914102659964928
aI827914101926027264
aI827914037937713152
aI827913977032220672
aI827913962268270592
aI827913938532696064
aI827913937362571264
aI827913866759778305
aI827913854927646720
aI827913844186034177
aI827913817745190912
aI827913584332173312
aI827913507668623360
aI827913358598893568
aI827913321877737477
aI827913250536902656
aI827913081229570048
aI827912960030945280
aI827912951592005634
aI827912937079709696
aI827912918104686592
aI827912905408577537
aI827912901008773121
aI827912888056684546
aI827912810592092160
aI827912733433663488
aI827912505410347009
aI827912282063659008
aI827912090996322309
aI827911998906175489
aI827911920862773248
aI827911873060286464
aI827911785575489536
aI827911763450540033
aI827911685042294786
aI827911633003503616
aI827911615307739137
aI827911591958048768
aI827911589286309888
aI827911553471115269
aI827911492808880130
aI827911384608419843
aI827911254106898433
aI827911253020532737
aI827911165468614658
aI827911048963510273
aI827910970479611904
aI827910904339636224
aI827910850367340544
aI827910801621127169
aI827910797078691840
aI827910786416836609
aI827910773687074816
aI827910679478808578
aI827910556719919104
aI827910416533696513
aI827910377778327554
aI827910292973686785
aI827910291308630016
aI827910260451115009
aI827910259859668992
aI827910199146995712
aI827909986290331649
aI827909947530813441
aI827909887233507330
aI827909870129147904
aI827909777443475459
aI827909773995696129
aI827909770787057664
aI827909767519666176
aI827909705632722944
aI827909690260611072
aI827909679489675264
aI827909677287608320
aI827909546928640004
aI827909427302907904
aI827909415131029504
aI827909284293926916
aI827909233190506502
aI827909143344332800
aI827909129532534785
aI827908939492765696
aI827908913504845826
aI827908909050519552
aI827908857569669121
aI827908834647740416
aI827908829178380290
aI827908711872155648
aI827908690506301442
aI827908665822830593
aI827908592112132098
aI827908548952731650
aI827908442488705026
aI827908410431635460
aI827908253342392320
aI827908248237985792
aI827908242705616897
aI827908213920120832
aI827908213840420869
aI827908149369851904
aI827908142113705985
aI827908096290914304
aI827908027911172102
aI827908000690106368
aI827907602902298624
aI827907511009341440
aI827907321112252416
aI827907170977116160
aI827907080971497472
aI827907079084072960
aI827907055935750144
aI827906884837507073
aI827906866369949696
aI827906781879889921
aI827906618000023554
aI827906584256901120
aI827906530414567425
aI827906480246489088
aI827906304534577153
aI827906020110376961
aI827905744301334528
aI827905624629506048
aI827905514495475712
aI827905446518411266
aI827905363987021824
aI827905351030808576
aI827905288334405633
aI827905169438408705
aI827904940643319810
aI827904914374455297
aI827904909668397056
aI827904422567084032
aI827904361749741569
aI827904307370532864
aI827904277381267457
aI827904243080130564
aI827904233433346049
aI827904197232357377
aI827904027291709442
aI827903960526778368
aI827903845854478338
aI827903670213816320
aI827903668599005185
aI827903582330556416
aI827903550390988800
aI827903370732171265
aI827903327623081986
aI827903320614395904
aI827903238011756544
aI827903202641207301
aI827903060982771713
aI827903041395388417
aI827903013582942208
aI827902956234227712
aI827902684594307072
aI827902670442725376
aI827902662507188230
aI827902493753483264
aI827902428393639938
aI827902415294828544
aI827902261967855617
aI827902195202920448
aI827902181420519425
aI827902173878980608
aI827902102294904833
aI827902008480899072
aI827901961991249921
aI827901839043592192
aI827901753106583552
aI827901733670109184
aI827901647082897408
aI827901635259154433
aI827901464962093056
aI827901416031281152
aI827901372469276673
aI827901343054622720
aI827901338843545600
aI827901270367272960
aI827901247671910401
aI827901196191092737
aI827901093086711808
aI827901091501195268
aI827901059913891841
aI827901051621748736
aI827901023415046144
aI827901012728020992
aI827900969635684353
aI827900869467312128
aI827900840799264769
aI827900736990281729
aI827900711350448130
aI827900674897747968
aI827900536196325377
aI827900521507856385
aI827900501723332609
aI827900501152956416
aI827900428755034112
aI827900369137233924
aI827900359200874499
aI827900332810321920
aI827900300866551815
aI827900294289772545
aI827900291207004161
aI827900272731103232
aI827900270961164289
aI827900231476006912
aI827900182486511616
aI827900126047920134
aI827899896866930688
aI827899881998147584
aI827899750783528960
aI827899743896481794
aI827899743175077889
aI827899733104611329
aI827899669195919362
aI827899561360363522
aI827899517982932994
aI827899506855387136
aI827899501360844800
aI827899376362217472
aI827899368304934914
aI827899284381118464
aI827899275396931584
aI827899269109645313
aI827899177069867009
aI827899160796004354
aI827899137983119361
aI827899132278878209
aI827899115430375425
aI827899044538236930
aI827899043695169536
aI827898937642188801
aI827898788220174340
aI827898693735051265
aI827898492370743297
aI827898450868043778
aI827898438859763714
aI827898405850587136
aI827898185167360007
aI827898142666416129
aI827898141710118912
aI827898043240476672
aI827897918220804096
aI827897857252392960
aI827897678906421248
aI827897654550093825
aI827897545045209088
aI827897518545629184
aI827897517450940418
aI827897500883353600
aI827897464862679040
aI827897353055133697
aI827897350811156480
aI827897305856630790
aI827897259744452609
aI827897225858670592
aI827897216559747072
aI827897210306166784
aI827897084623933441
aI827897050314457088
aI827896978646433793
aI827896759397576704
aI827896716284350465
aI827896684877332481
aI827896420178857984
aI827896276805152768
aI827896239429660672
aI827896217833177089
aI827896076770430976
aI827895970641883140
aI827895936890310657
aI827895879508062208
aI827895837225340928
aI827895671059537920
aI827895607020908548
aI827895566826950657
aI827895548447510530
aI827895320159858688
aI827895258017124353
aI827895195609894913
aI827895112868978690
aI827895034636808192
aI827894981964730368
aI827894909143306241
aI827894869007986690
aI827894736262414337
aI827894714070360064
aI827894677009469441
aI827894569303957504
aI827894555328573440
aI827894494179700738
aI827894431412060167
aI827894384125419520
aI827894322515345409
aI827894321324097536
aI827894299043966976
aI827894262939394049
aI827894213324980225
aI827894167003095045
aI827894076850786304
aI827894065031159808
aI827893969304616961
aI827893960123248640
aI827893822940082176
aI827893740152950785
aI827893721878364160
aI827893623765209088
aI827893497671909376
aI827893479053389824
aI827893323134275584
aI827893256331653120
aI827893182629347329
aI827893137125302276
aI827893135812489216
aI827893028773822468
aI827893001972281344
aI827893001166942210
aI827892923178024960
aI827892829405995008
aI827892808866463745
aI827892652020469762
aI827892601277734912
aI827892533191655424
aI827892518331285506
aI827892463968751617
aI827892424341061632
aI827892314425147397
aI827892232564924416
aI827892189371969537
aI827892060497858562
aI827891924145147905
aI827891878007861248
aI827891815806271488
aI827891755810971648
aI827891714090221569
aI827891586398822400
aI827891578291232769
aI827891536608292864
aI827891502818934785
aI827891457952534531
aI827891422380584960
aI827891302125752324
aI827891241744478209
aI827891213600698368
aI827891173817729024
aI827891160022732800
aI827891101885403136
aI827891008016883712
aI827891002149056512
aI827890847400198145
aI827890796363935744
aI827890777279909889
aI827890670660702209
aI827890642558779392
aI827890637039079426
aI827890587101753345
aI827890478062383110
aI827890434731044867
aI827890258121486336
aI827890143134699520
aI827890054303453184
aI827889974934720513
aI827889775629697024
aI827889678737108993
aI827889658038194176
aI827889479763554305
aI827889462248140800
aI827889442555887620
aI827889406489014272
aI827889393893416960
aI827889377741303809
aI827889280139853824
aI827889270211932161
aI827889209893609472
aI827889178381840385
aI827889162699337729
aI827889109205188608
aI827888919685500928
aI827888890279256065
aI827888791788584960
aI827888748113383424
aI827888742220324864
aI827888647802347520
aI827888630781923328
aI827888614352760832
aI827888602969436160
aI827888589656748034
aI827888578902515712
aI827888557700345856
aI827888456416256000
aI827888306134343680
aI827888302548205571
aI827888294105083905
aI827888220629299202
aI827888210210672640
aI827888185623588865
aI827888173569163264
aI827888161061797888
aI827888096968658944
aI827888043935879168
aI827888002252861440
aI827887996632449025
aI827887910074609664
aI827887832442273797
aI827887799584096256
aI827887794454401025
aI827887746983272448
aI827887695338823680
aI827887636983459840
aI827887561662201856
aI827887533199675392
aI827887427108892673
aI827887401989206017
aI827887255461175297
aI827887134598164488
aI827887104520765442
aI827887104084553729
aI827887079975636993
aI827886957405601792
aI827886947465060352
aI827886922488020996
aI827886889118097408
aI827886865042780162
aI827886812915986434
aI827886752610320391
aI827886690882711553
aI827886600801681409
aI827886501283381252
aI827886495960801280
aI827886214753681410
aI827886210215505920
aI827886121048743936
aI827886069161066498
aI827885964492148736
aI827885920561070080
aI827885860007899136
aI827885853364088832
aI827885828462489600
aI827885801103036420
aI827885778038620160
aI827885740868698114
aI827885715350548480
aI827885609746366464
aI827885537386254336
aI827885470449356801
aI827885394293309440
aI827885323082465281
aI827885298780688387
aI827885124058566656
aI827885105884573696
aI827884989907886081
aI827884940092112896
aI827884923746934784
aI827884839340822529
aI827884713352318976
aI827884689994158080
aI827884613817212928
aI827884488323633152
aI827884429448212480
aI827884423605518337
aI827884416093605888
aI827884339648147458
aI827884267367694336
aI827884161453146112
aI827884046789271553
aI827884015789146112
aI827883915637563393
aI827883767431835648
aI827883732069646338
aI827883711475630080
aI827883668626616320
aI827883637228072960
aI827883500598599680
aI827883380335329280
aI827883246495080449
aI827883055314505729
aI827883023232335872
aI827882860522700801
aI827882803014561792
aI827882681815924738
aI827882660089491456
aI827882590216531968
aI827882485702914050
aI827882362491064321
aI827882356325351425
aI827882340164710401
aI827882323697872896
aI827882284351123458
aI827882202318958592
aI827882179216732161
aI827882015508799488
aI827881904066134020
aI827881866581700608
aI827881830351249413
aI827881826710650881
aI827881820830187521
aI827881763150102528
aI827881751364194304
aI827881695185666051
aI827881632736608256
aI827881619784622082
aI827881584057520128
aI827881581704519681
aI827881451920175105
aI827881418684583936
aI827881235318001664
aI827881200727388162
aI827881188580802566
aI827881071404523520
aI827881016513724417
aI827880960943329281
aI827880948616265728
aI827880703278858242
aI827880654012612608
aI827880631979868162
aI827880575339991040
aI827880448806227968
aI827880436240089088
aI827880423044894720
aI827880399078567937
aI827880331403468800
aI827880313493807104
aI827880283055734786
aI827880268178546689
aI827880264231747584
aI827880185303298057
aI827879992814141440
aI827879983108456449
aI827879979207839744
aI827879944256622592
aI827879890208878592
aI827879875491033088
aI827879809434927105
aI827879791038722048
aI827879699166724098
aI827879652916068353
aI827879551132979200
aI827879536729714688
aI827879438419374082
aI827879434472583169
aI827879400351883264
aI827879399521452032
aI827879376637288448
aI827879353748975616
aI827879282697453568
aI827879185796460544
aI827879070599880704
aI827878992153866240
aI827878909580546049
aI827878888156045313
aI827878867398488064
aI827878831860088832
aI827878830014660608
aI827878787178233856
aI827878783600451585
aI827878737689640960
aI827878703958990848
aI827878686133276673
aI827878667581812737
aI827878656856952832
aI827878614150610945
aI827878602112958465
aI827878506738675712
aI827878386735411200
aI827878363679301632
aI827878341038452736
aI827878319865622529
aI827878173803237377
aI827877976859635714
aI827877956265586688
aI827877944953540609
aI827877872870313984
aI827877814481321984
aI827877770537627648
aI827877758143430656
aI827877710601007106
aI827877637771108352
aI827877557894774785
aI827877361869844480
aI827877277253959681
aI827877267372122112
aI827877249001070593
aI827877226477678592
aI827877206365974528
aI827877058495787008
aI827877047653511168
aI827876991118540804
aI827876954623848448
aI827876925393756164
aI827876879604543490
aI827876869517213699
aI827876588742144000
aI827876520366632960
aI827876471293231105
aI827876370613145600
aI827876260739219456
aI827876246331719685
aI827876206829780993
aI827876058477260800
aI827876025925251072
aI827876004366602240
aI827876001732521985
aI827875965833457664
aI827875888641536002
aI827875851643527168
aI827875850309746689
aI827875783515463682
aI827875736765726721
aI827875730067509248
aI827875716943446016
aI827875656545476608
aI827875587524009985
aI827875564216320000
aI827875406850248704
aI827875388672114689
aI827875284699475968
aI827875271332200449
aI827875226977501189
aI827875210628042754
aI827875142978134016
aI827875128709091330
aI827875053941428224
aI827874899112972292
aI827874861745860608
aI827874844763160577
aI827874620397195265
aI827874481045647360
aI827874455703674880
aI827874435864616960
aI827874411332120576
aI827874380445278209
aI827874288082546688
aI827874203663736833
aI827874109929451520
aI827874109296095232
aI827873981663412224
aI827873906174337024
aI827873888533114880
aI827873767649075200
aI827873761277861890
aI827873738565771264
aI827873634689675264
aI827873603400110081
aI827873580809670656
aI827873474932830209
aI827873391348703234
aI827873378375700480
aI827873333165301761
aI827873258368335873
aI827873247685390336
aI827873230102872065
aI827873210897137664
aI827873181755129856
aI827873159663775744
aI827873058958503936
aI827872987789537281
aI827872964188205056
aI827872958513369088
aI827872902615859200
aI827872832201826306
aI827872716124516352
aI827872376373264386
aI827872342583943168
aI827872322145153025
aI827872133317480448
aI827872095254233088
aI827871919701647362
aI827871852898947072
aI827871851766505472
aI827871832397246467
aI827871803079061505
aI827871753108127745
aI827871614687727617
aI827871541689991172
aI827871490427207680
aI827871347166572546
aI827871323405836289
aI827871322017509376
aI827871297615060992
aI827871296306425856
aI827871194686820353
aI827871057461772288
aI827871028042948608
aI827870960065847298
aI827870931292925953
aI827870912653512704
aI827870850015698944
aI827870822211657729
aI827870812736716800
aI827870802234183682
aI827870695401070592
aI827870672877658112
aI827870485602062336
aI827870337043947521
aI827870199114260480
aI827870198120210432
aI827870141019017218
aI827870051424411648
aI827869936936706048
aI827869886789595136
aI827869786373754880
aI827869507498700800
aI827869386065244165
aI827869265634217986
aI827869107081117696
aI827868926205947904
aI827868871533133824
aI827868869494767616
aI827868704771887104
aI827868702339133440
aI827868681321459714
aI827868629899345920
aI827868606792888321
aI827868565197963265
aI827868399321673728
aI827868392820457472
aI827868385111334912
aI827868330983833602
aI827868213656567808
aI827868198448029697
aI827868110569033728
aI827868089790369792
aI827867732196593664
aI827867610935078912
aI827867604429787137
aI827867507558141952
aI827867503212761088
aI827867439652290560
aI827867334794690560
aI827867280004493312
aI827867155333050369
aI827867042497847297
aI827866971471503360
aI827866743406264320
aI827866731263750145
aI827866718324264960
aI827866643208495104
aI827866621326749697
aI827866615073087493
aI827866608223678464
aI827866518096601088
aI827866510697885696
aI827866452405448705
aI827866404904906752
aI827866216278548480
aI827866022036267008
aI827865919967862784
aI827865918613094401
aI827865890234433536
aI827865785448222720
aI827865764954796032
aI827865752346750977
aI827865600953298944
aI827865597065179136
aI827865588710125568
aI827865453330567169
aI827865428168994817
aI827865398938828800
aI827865376537051136
aI827865216813764608
aI827865023041134592
aI827864916304461825
aI827864904380121089
aI827864859698163713
aI827864814038941701
aI827864610732699649
aI827864581297098758
aI827864457598607361
aI827864367307882496
aI827864310403723264
aI827864257693937664
aI827864212210847744
aI827864047961903104
aI827864036578557953
aI827864018207567872
aI827863992978776065
aI827863924888498176
aI827863888628744194
aI827863818407641088
aI827863656675282946
aI827863600542920704
aI827863440052068352
aI827863412348768257
aI827863395005321216
aI827863303179423745
aI827863140968853504
aI827863134610259968
aI827863007522856960
aI827862976875094017
aI827862973490331649
aI827862897619562496
aI827862897091104768
aI827862806783459329
aI827862748050632706
aI827862712906608640
aI827862700504055812
aI827862625581199361
aI827862461575467008
aI827862365492432898
aI827862339810709507
aI827862278930386951
aI827862241458417664
aI827862236106457090
aI827862197887959040
aI827862167710003200
aI827862131609575424
aI827862039460716545
aI827862022964523009
aI827861840789172225
aI827861838029262849
aI827861808119742464
aI827861779585843200
aI827861720785895424
aI827861720727171076
aI827861662011101184
aI827861607715840000
aI827861603211235328
aI827861426056347648
aI827861397597982720
aI827861370033041408
aI827861319462375424
aI827861294430707712
aI827861289879867392
aI827861258254823426
aI827861096035803136
aI827860955463839746
aI827860938674028544
aI827860931157848067
aI827860736537948160
aI827860725473345536
aI827860723606904834
aI827860712554897409
aI827860647669022721
aI827860605549813761
aI827860599677808640
aI827860529410486273
aI827860521781063680
aI827860389710827523
aI827860318944710656
aI827860309935288320
aI827860246991339520
aI827860235779964928
aI827860173129646080
aI827860103781109761
aI827860087406546944
aI827859993722548225
aI827859937845977088
aI827859902852898816
aI827859822813011968
aI827859742454341633
aI827859662942908421
aI827859638087479296
aI827859614049959936
aI827859581955084289
aI827859391038779392
aI827859371363332096
aI827859283450744832
aI827859245001498624
aI827859182498017280
aI827859177431261184
aI827858994685419520
aI827858982396112901
aI827858866503303172
aI827858794633895936
aI827858764296515584
aI827858723091652609
aI827858562168811520
aI827858546616328192
aI827858536789078016
aI827858465557209088
aI827858273193848833
aI827858238913789952
aI827857996692725760
aI827857991957413890
aI827857980783751168
aI827857897526874112
aI827857887716335616
aI827857857588711424
aI827857820448124929
aI827857710498590720
aI827857623814778881
aI827857514389700608
aI827857481472831488
aI827857426997207040
aI827857377777049604
aI827857292880146433
aI827857269064765441
aI827857263683440640
aI827857260919418880
aI827857255114551296
aI827857074537234432
aI827857026676117505
aI827857026227302401
aI827857009785597952
aI827856916277780485
aI827856892802297856
aI827856863433744384
aI827856805124530176
aI827856804952551425
aI827856760883048448
aI827856607434387458
aI827856542615666690
aI827856530187907073
aI827856405931687937
aI827856344845795329
aI827856256371159041
aI827856253607149568
aI827856104189284352
aI827856016679301122
aI827855974224502785
aI827855893345742849
aI827855750118699008
aI827855704153264129
aI827855682900787200
aI827855657160364032
aI827855559865008129
aI827855520426033152
aI827855476998160386
aI827855450725040129
aI827855395410628609
aI827855377677086720
aI827855348639870976
aI827855330658963457
aI827855107400331265
aI827855102845321217
aI827855045341364225
aI827855037426696193
aI827855016509767680
aI827855005768151040
aI827854938139148288
aI827854883982340097
aI827854811324379136
aI827854702209560577
aI827854623595716608
aI827854611608371200
aI827854522638807041
aI827854401956089857
aI827854342329925632
aI827854262935965698
aI827854221563277312
aI827854148695638020
aI827854043347304449
aI827854039673090048
aI827854031125102592
aI827854026167480320
aI827853974359375872
aI827853922773643264
aI827853758113652736
aI827853659249721345
aI827853632322334724
aI827853529469579264
aI827853460817195008
aI827853446573412352
aI827853421503995905
aI827853264498601987
aI827853132109459457
aI827853067190145024
aI827853065294376960
aI827853064514236416
aI827852940681547777
aI827852876995248128
aI827852853834346496
aI827852786020786180
aI827852780807282689
aI827852748846723072
aI827852677665144832
aI827852638230282240
aI827852610141052928
aI827852603526615040
aI827852426803867648
aI827852350631055361
aI827852249791680512
aI827852235803594756
aI827852231542206464
aI827852207110418434
aI827852119176802304
aI827852090861039618
aI827851976528519168
aI827851762031788032
aI827851586865082369
aI827851547711258624
aI827851542267121664
aI827851491184693248
aI827851488584200197
aI827851472746532864
aI827851409936773120
aI827851372443873281
aI827851233729839104
aI827851208735997953
aI827851136644300801
aI827850938727723009
aI827850765356113920
aI827850636062556160
aI827850590768205824
aI827850564155355142
aI827850513815322624
aI827850451328565248
aI827850287058673665
aI827850065255550976
aI827850041322795008
aI827850040873992192
aI827849990961770496
aI827849943868125188
aI827849937161486337
aI827849921395093504
aI827849793934352391
aI827849789953998848
aI827849728687820801
aI827849600702771200
aI827849535913328640
aI827849517596803074
aI827849503399108609
aI827849340811087873
aI827849263489175553
aI827849244593778688
aI827849243612348416
aI827849216143872004
aI827849214747082752
aI827849213358780416
aI827849132052246529
aI827849105745534976
aI827849073256517634
aI827848939357495296
aI827848871472689152
aI827848760004923392
aI827848662109868032
aI827848522594734081
aI827848295338930176
aI827848228766892032
aI827848148613754880
aI827848081467125760
aI827848058784321536
aI827848028207906816
aI827847990970875904
aI827847746669441024
aI827847658182156289
aI827847569371983872
aI827847376857608192
aI827847367382687744
aI827847356091604993
aI827847312290541569
aI827847050310062080
aI827846981166964736
aI827846894336491520
aI827846872194772992
aI827846824111251457
aI827846823259811840
aI827846700702240769
aI827846689402789889
aI827846515335000065
aI827846510998061056
aI827846362175795205
aI827846291539578880
aI827846187143270400
aI827846176531558401
aI827846158101917697
aI827846043333226497
aI827846016036651008
aI827845970431995904
aI827845796779405312
aI827845661433405442
aI827845633667117056
aI827845502754549760
aI827845479220248580
aI827845428402073600
aI827845424035807232
aI827845416976785409
aI827845362287333377
aI827845348332822529
aI827845022385057792
aI827844770177376256
aI827844633862557697
aI827844593618124800
aI827844518724698113
aI827844338407370752
aI827844321453940736
aI827844155137212418
aI827843730711408640
aI827843670082801666
aI827843611626762241
aI827843489450831873
aI827843480625909760
aI827843441354747904
aI827843273007984640
aI827843267265961984
aI827843258122375168
aI827843157790449665
aI827843092833263616
aI827843074411864064
aI827843024235483136
aI827842794375041026
aI827842791812300800
aI827842779212562432
aI827842748082450432
aI827842692017188866
aI827842666792640512
aI827842621821317122
aI827842428107444225
aI827842383849091072
aI827842132249608193
aI827842118307762176
aI827842100133765121
aI827842098590269440
aI827842088171626496
aI827842040381718528
aI827841998061178881
aI827841956223053824
aI827841675447902211
aI827841640350019584
aI827841590731366400
aI827841541955846144
aI827841531436490752
aI827841130544918528
aI827841098601095168
aI827840846473154562
aI827840834989072386
aI827840422009569281
aI827840364031655936
aI827840334537310208
aI827840205906391040
aI827840198423769088
aI827839990763814913
aI827839798954057728
aI827839548327653377
aI827839391263576064
aI827839358057066497
aI827839336376889344
aI827839123901841408
aI827839087159701504
aI827839064112033797
aI827838939427983362
aI827838922382262273
aI827838776005230592
aI827838774335963136
aI827838727900774400
aI827838495595065345
aI827838353445965824
aI827838348748132353
aI827838169253081088
aI827838156045185024
aI827838141776150528
aI827838065540481024
aI827837969990053888
aI827837926902026241
aI827837873797918720
aI827837863450570752
aI827837728540737536
aI827837231549259777
aI827837219679457281
aI827837201295765504
aI827837126532333571
aI827837051785641984
aI827837015685206016
aI827836921724403712
aI827836807039614976
aI827836801536532480
aI827836773669752832
aI827836771773845504
aI827836769185984513
aI827836732884340736
aI827836626147631104
aI827836606652510209
aI827836512167268356
aI827836481557450752
aI827836428071608320
aI827836270449655808
aI827836234760409088
aI827836179013836800
aI827836138727542784
aI827836097170391040
aI827836060520574976
aI827835962424250368
aI827835952232071169
aI827835939028365312
aI827835907420065793
aI827835852587937793
aI827835786133397504
aI827835563059376129
aI827835456448557057
aI827835436533944321
aI827835419643543552
aI827835364903616512
aI827835279297937408
aI827835271077064704
aI827835251481264128
aI827835081725194240
aI827835011764195328
aI827834944147845120
aI827834890708213760
aI827834864728674304
aI827834796734820352
aI827834759548194816
aI827834722520809473
aI827834474943672320
aI827834445050834944
aI827834433793302528
aI827834403581784064
aI827834093589106688
aI827834087624810496
aI827833965260181504
aI827833908116987905
aI827833797139906560
aI827833770610982912
aI827833749714923520
aI827833722854600704
aI827833548157644801
aI827833508655685633
aI827833162306818049
aI827832951459180544
aI827832876012011520
aI827832845070716928
aI827832786069364736
aI827832766037364736
aI827832674018525188
aI827832664887611394
aI827832612735561729
aI827832546310422528
aI827832452232134657
aI827832446372691968
aI827832385274249216
aI827832357956833280
aI827832310569508865
aI827832281272287236
aI827832280454402048
aI827832229598523392
aI827832198988431360
aI827832066721058816
aI827832044466094080
aI827832031270801408
aI827831972655423488
aI827831872608694272
aI827831833354182656
aI827831810117746688
aI827831745244516352
aI827831660074958848
aI827831643108945921
aI827831638759452673
aI827831576666988544
aI827831547973742592
aI827831384005890049
aI827831363109797888
aI827831302321819648
aI827831275524349952
aI827831136646754305
aI827831129814265856
aI827831031310974976
aI827831001812443136
aI827830925262278656
aI827830914688376832
aI827830896501854208
aI827830844236632064
aI827830817292431360
aI827830731007213569
aI827830398365364226
aI827830349308760064
aI827830324021358593
aI827830263598215170
aI827830171008909312
aI827830064540696576
aI827830047289511936
aI827829775523786752
aI827829757689618432
aI827829739528282112
aI827829641037676545
aI827829629310365696
aI827829603536343041
aI827829410149593088
aI827829349021782017
aI827829334677258240
aI827829234240479232
aI827829094284922880
aI827829059409289216
aI827828886964670465
aI827828811181989889
aI827828806916390912
aI827828775102595073
aI827828569707528193
aI827828483921428480
aI827828321169862656
aI827828262894182405
aI827828225699102720
aI827828224948305920
aI827828193520398336
aI827828124083769344
aI827828105612034049
aI827828075081695232
aI827827885721473024
aI827827761792286720
aI827827666967547904
aI827827590027210752
aI827827573656788992
aI827827567973515265
aI827827541738188800
aI827827418396233732
aI827827311328239616
aI827827179463512064
aI827827024618217472
aI827826970612342784
aI827826948206362625
aI827826895551082496
aI827826820368232448
aI827826790815105024
aI827826754777673730
aI827826521112997888
aI827826431317139457
aI827826427039010816
aI827826395992715264
aI827826313301991424
aI827826211300712448
aI827826102819254272
aI827826102156537856
aI827826063959060481
aI827825976058982400
aI827825868684791808
aI827825749566554112
aI827825702133186560
aI827825613083914241
aI827825609942372352
aI827825525263593472
aI827825410549411840
aI827825300356620288
aI827825237622394880
aI827825193427038209
aI827825126708277248
aI827824879168847872
aI827824780384600064
aI827824685014458368
aI827824613631606784
aI827824493565460480
aI827824413533990912
aI827824189319020545
aI827824152052690946
aI827824143387222019
aI827823922011893760
aI827823896200114177
aI827823864361152512
aI827823255553720320
aI827823218065080320
aI827823205490577408
aI827823194128121856
aI827823176675688448
aI827823074351382528
aI827822828158337024
aI827822759111692289
aI827822718674468864
aI827822259750440961
aI827822081823875074
aI827822081601593344
aI827821928173940736
aI827821915045773312
aI827821629455601664
aI827821623478775808
aI827821621629050880
aI827821599613186048
aI827821563714076672
aI827821533741645824
aI827821512094781440
aI827821387012304896
aI827821347183144964
aI827821339734056960
aI827821179419373568
aI827820984799477760
aI827820911583694849
aI827820641726377986
aI827820587007492096
aI827820400805560320
aI827820332958568448
aI827820220479840257
aI827820144332247040
aI827819959552188417
aI827819772419112960
aI827819766400372737
aI827819438841937921
aI827819183803158528
aI827819057088978944
aI827819041398063104
aI827818947986735105
aI827818779430240257
aI827818688388669440
aI827818603428855808
aI827818560277868548
aI827818473921339393
aI827818383898992640
aI827818051882143744
aI827818039487897600
aI827817797568909312
aI827817714731380737
aI827817713422704640
aI827817591364321280
aI827817299885293569
aI827817217039462400
aI827816775190462464
aI827816768014008320
aI827816612191428608
aI827816518234816512
aI827816480741945344
aI827816415839281152
aI827816342292152320
aI827816297190789120
aI827816192412884993
aI827816116579921920
aI827816024372281346
aI827815753034375168
aI827815666824646656
aI827815632896946176
aI827815563355369473
aI827815331917869056
aI827815329262878721
aI827815272883044352
aI827814988437811200
aI827814926504837120
aI827814895232151553
aI827814844699123712
aI827814486958624769
aI827814418243272704
aI827814412572643328
aI827814359569162240
aI827814200219156480
aI827813883469524992
aI827813816599732224
aI827813657799249920
aI827813617626185728
aI827813582482108416
aI827813129908264965
aI827812976094826496
aI827812923120746496
aI827812830531506176
aI827812749161951233
aI827812450154213377
aI827812423159648256
aI827812295912935424
aI827812056460058624
aI827811759671144448
aI827811631577042944
aI827811601113870336
aI827811456682954756
aI827811357739343872
aI827811258388713472
aI827811251900252164
aI827811229964107777
aI827811070228168704
aI827811043577569280
aI827810812261724160
aI827810757442150400
aI827810646855122944
aI827810609504874497
aI827810243946115072
aI827810147053531137
aI827809835567624192
aI827809671339765761
aI827809255503851521
aI827809249132761088
aI827809203335081985
aI827809097340837891
aI827809054726709248
aI827809028747165696
aI827808997432500224
aI827808966927380481
aI827808619655811072
aI827808584838811649
aI827808191643840512
aI827807992582119425
aI827807972093022208
aI827807961976168449
aI827807696288088065
aI827807658048618496
aI827807640851980288
aI827807606790094848
aI827807497025110016
aI827807486333898752
aI827807453853138944
aI827807403873808385
aI827807325981442048
aI827807225154588673
aI827807190052376578
aI827806937316212736
aI827806922808098816
aI827806654636908544
aI827806622185570304
aI827806592313745408
aI827806529478864896
aI827806428656177152
aI827806191237619713
aI827805992620539905
aI827805869001814016
aI827805828635820032
aI827805825209073664
aI827805634183757825
aI827805608338399232
aI827805501681446913
aI827805332357468160
aI827805180515192836
aI827805117906829312
aI827805073992450048
aI827804935123267585
aI827804864071733248
aI827804799060041728
aI827804795863986178
aI827804744324374528
aI827804736271290368
aI827804705682288640
aI827804670919835648
aI827804600954712064
aI827804504825425920
aI827804463717040130
aI827804459514392576
aI827804383719079941
aI827804368216924160
aI827804176818270208
aI827804174683344897
aI827804150272516101
aI827803833363492864
aI827803146319753216
aI827803072214790146
aI827803036139581440
aI827802629229146113
aI827802559792439296
aI827802515278331904
aI827802404112494592
aI827802324231925760
aI827802179503259648
aI827801954730516480
aI827801763247960064
aI827801658692399104
aI827801624697516032
aI827801413602377728
aI827801272950673409
aI827801212766547968
aI827801184832458752
aI827801069996630017
aI827801066322403328
aI827800935594414080
aI827800911854596096
aI827800226551439360
aI827800216447438849
aI827799411900239873
aI827799384884641792
aI827799316949585920
aI827799174712225792
aI827799163836444672
aI827799069934362624
aI827798964888014849
aI827798802199359489
aI827798650516623361
aI827798397188972545
aI827798298522165249
aI827798272353959936
aI827797797512548352
aI827797594718031873
aI827797181629419521
aI827797108631691264
aI827796976372678656
aI827796964205088768
aI827796610054750208
aI827796122202730496
aI827796058122104832
aI827795705196580864
aI827795556516904960
aI827795377281761280
aI827795356956110848
aI827795006245183488
aI827794948636418048
aI827794663801290754
aI827794502572204032
aI827794278780981248
aI827794132299030528
aI827794068029706240
aI827793683156197376
aI827793442600341504
aI827793236936781824
aI827793149623873540
aI827792978207002624
aI827792141342609409
aI827792114926964736
aI827791930880847872
aI827791920046997505
aI827791911075344385
aI827791694842179584
aI827791552906985473
aI827791467485810690
aI827791368835710977
aI827791252385099776
aI827791101054611456
aI827790576024223744
aI827790437884760064
aI827790227318120449
aI827790027912527872
aI827789979011133440
aI827789959935492097
aI827789881678106625
aI827789847469371392
aI827789484766879744
aI827789445793447938
aI827789382526582784
aI827789258706583552
aI827789177005735936
aI827789172119330817
aI827788991407734785
aI827788988664672256
aI827788812948533248
aI827788428830003201
aI827788411104813056
aI827787959214673922
aI827787869628538881
aI827787614589747204
aI827787589818134530
aI827787569257668608
aI827787559233323010
aI827787057758105600
aI827786647391580160
aI827786448581619712
aI827786438045478912
aI827786054296096768
aI827785882686091264
aI827785704461705217
aI827785472080506881
aI827785399107989504
aI827785194275033088
aI827785185932537856
aI827785074544345088
aI827784181518389248
aI827784175071666176
aI827783810737635328
aI827783247325192192
aI827783120535564289
aI827782451149815808
aI827782379393708032
aI827781866832920576
aI827781305052037120
aI827780789937008643
aI827780648949673985
aI827779998933204992
aI827779994193633280
aI827779994051080193
aI827779471004557312
aI827779250866491392
aI827779129336532993
aI827779055005081600
aI827778774376792064
aI827778766759927808
aI827778730537926657
aI827778587973603328
aI827777960216297472
aI827777920559173632
aI827777817559650305
aI827777632930562048
aI827776731960397824
aI827776196641439745
aI827776075807784961
aI827775999270072320
aI827774637769646080
aI827773780428722176
aI827773105191919616
aI827768518238146561
aI827768313493192704
aI827767672116908033
aI827767287218331648
aI827766752008351745
aI827765966784299008
aI827765700819353600
aI827765418538459136
aI827764250974228480
aI827764091930472448
aI827764086079385600
aI827763874669682689
aI827763580862881792
aI827763171062587392
aI827762922457853952
aI827762639744991232
aI827760619533242368
aI827760579238572032
aI827760469406527488
aI827759457857839104
aI827758047057543169
aI827757700536815616
aI827756210246021120
aI827755570073579525
aI827755445871849472
aI827754606595805186
aI827753103063654400
aI827752368657817600
aI827751776208220160
aI827749482993479680
aI827748646967975937
aI827748270663413760
aI827748055117991936
aI827745638381142016
aI827745368632881152
aI827745187082432513
aI827743831630168065
aI827742210586054657
aI827742074770440192
aI827741715872223232
aI827741300338335744
aI827740892371025920
aI827740454057828352
aI827740114684108800
aI827739199151493120
aI827738337935028224
aI827738271790858241
aI827736514155073536
aI827735910108258305
aI827734410673930240
aI827734357246955521
aI827733855314526208
aI827733392817061888
aI827733233404112896
aI827731911279783937
aI827731626138406912
aI827731556559101952
aI827730974423318530
aI827730881339072516
aI827730844911562752
aI827730797268463621
aI827730744210575360
aI827729708892688384
aI827729172588068865
aI827728822531403777
aI827728748824899584
aI827728734513926148
aI827728653417058306
aI827727367045001216
aI827725852720955392
aI827724728622280705
aI827723919209684992
aI827721660757315585
aI827721575709433856
aI827720510247202816
aI827720272547610624
aI827719657712865281
aI827718830273286144
aI827718748358504448
aI827718413636222977
aI827718081178906625
aI827717769189785600
aI827717161850388481
aI827716756496084992
aI827716461376503809
aI827716387435053061
aI827716111651184641
aI827715508590014465
aI827715338473242624
aI827715290138079232
aI827714913737068544
aI827714318997204992
aI827713167123943424
aI827712481955037184
aI827712460278874112
aI827711967309623296
aI827711817736654848
aI827710915399270400
aI827710504139382784
aI827710381183344640
aI827710370345316352
aI827710266469183488
aI827709929138036737
aI827709563927425025
aI827709047818354690
aI827709032320282624
aI827708872819408901
aI827708766527377408
aI827708591855566848
aI827708501438955521
aI827707484928356352
aI827706837478801408
aI827706645962690561
aI827706279456022528
aI827705969899687940
aI827705536359579649
aI827704995189370880
aI827704606587232257
aI827704476777717761
aI827704254987173888
aI827703904888619008
aI827703681944518661
aI827703589187502082
aI827703540114157568
aI827703244960960518
aI827702627890769922
aI827702046019244032
aI827701237000830976
aI827700648049250304
aI827699800099393536
aI827699422373019649
aI827699192114114560
aI827699050296250368
aI827699027697422337
aI827698850701910016
aI827698810650505216
aI827698240648802304
aI827697088628662272
aI827696988066029569
aI827696000567476226
aI827695972675420160
aI827695943206191105
aI827695830509486080
aI827695543019257856
aI827695509288710147
aI827694827907080192
aI827694518984024064
aI827693352967663616
aI827692855946788866
aI827692544045760517
aI827692414420779009
aI827692077563727872
aI827691936781893633
aI827691815486754816
aI827691811250520064
aI827691765213851648
aI827691739309887488
aI827691639724503041
aI827691224001871872
aI827690782580563968
aI827690739270373378
aI827690291775672320
aI827690218811691008
aI827690139233165312
aI827690022266667008
aI827689937470369792
aI827689202951344128
aI827689185934983168
a.