(lp0
I12
aI108558
aI157720
aI55321
aI2080
aI22564
aI32806
aI141351
aI36904
aI145450
aI4140
aI18485
aI4156
aI67645
aI88126
aI16451
aI6217
aI28746
aI174155
aI34895
aI20566
aI108631
aI6234
aI98
aI16484
aI51303
aI18536
aI92267
aI53357
aI49266
aI2165
aI45175
aI106730
aI12410
aI6267
aI47231
aI12418
aI60562
aI2187
aI47246
aI146
aI86163
aI149
aI28833
aI6308
aI6309
aI61607
aI4264
aI10410
aI2219
aI43180
aI166067
aI50549
aI61634
aI893
aI2249
aI207
aI215
aI12510
aI37089
aI90346
aI69868
aI12527
aI92403
aI143402
aI258
aI2941
aI267
aI57612
aI33037
aI109956
aI155933
aI24864
aI291
aI10532
aI16677
aI30430
aI28983
aI333
aI20818
aI26973
aI16738
aI102757
aI367
aI24944
aI384
aI82306
aI76164
aI45446
aI56727
aI104848
aI2449
aI18838
aI14747
aI6558
aI29092
aI10675
aI43447
aI6584
aI72127
aI8642
aI451
aI72135
aI2510
aI51678
aI2533
aI96742
aI489
aI490
aI6636
aI15442
aI84462
aI178671
aI2546
aI66036
aI18942
aI8712
aI150026
aI12812
aI45581
aI12825
aI29212
aI72454
aI152103
aI2606
aI41523
aI33333
aI4668
aI8407
aI180802
aI37444
aI148039
aI39497
aI88650
aI12877
aI23121
aI33366
aI602
aI37472
aI180833
aI2659
aI4711
aI4715
aI119410
aI23156
aI66168
aI2682
aI41597
aI10886
aI4743
aI659
aI6805
aI12958
aI15008
aI176801
aI695
aI15135
aI12992
aI94924
aI10968
aI8685
aI23264
aI4841
aI13034
aI13035
aI13036
aI37614
aI13039
aI13044
aI80635
aI80636
aI774
aI775
aI6932
aI799
aI2850
aI4904
aI54058
aI9007
aI824
aI70461
aI78659
aI109390
aI45903
aI181073
aI15198
aI34672
aI19305
aI56466
aI23406
aI129904
aI47985
aI17277
aI56199
aI5006
aI129935
aI19344
aI6918
aI58261
aI922
aI926
aI191399
aI66474
aI2987
aI2988
aI19381
aI14836
aI93116
aI23487
aI52179
aI43854
aI4260
aI13277
aI4261
aI15329
aI117926
aI52203
aI3053
aI168
aI1017
aI3069
aI58367
aI39937
aI15531
aI11271
aI9232
aI7185
aI3091
aI13344
aI35873
aI76845
aI35336
aI52288
aI15429
aI865
aI13387
aI23630
aI23634
aI15447
aI167000
aI58458
aI13408
aI78948
aI23654
aI52338
aI17524
aI7289
aI11386
aI13436
aI13440
aI9345
aI66696
aI1164
aI4290
aI29840
aI23698
aI19615
aI149360
aI5284
aI189606
aI119979
aI25773
aI146607
aI36017
aI3254
aI7358
aI5312
aI19675
aI19677
aI7717
aI52454
aI13549
aI35709
aI11506
aI23801
aI9466
aI38141
aI46336
aI105729
aI3336
aI3339
aI9498
aI27932
aI9501
aI81117
aI15664
aI5427
aI107834
aI3295
aI9781
aI5454
aI1376
aI3430
aI5479
aI130408
aI64873
aI44401
aI52597
aI9596
aI3453
aI152959
aI60804
aI34369
aI3472
aI24131
aI26007
aI9455
aI17820
aI16551
aI83364
aI3493
aI13734
aI5544
aI38812
aI153003
aI23987
aI5557
aI1465
aI22433
aI21964
aI50637
aI1489
aI16212
aI5593
aI9701
aI50665
aI28140
aI32238
aI97780
aI3574
aI3578
aI26107
aI938
aI29952
aI28165
aI25857
aI7688
aI28169
aI77325
aI71189
aI55904
aI3610
aI5661
aI120350
aI167461
aI11829
aI42554
aI56176
aI13888
aI608
aI13579
aI20036
aI58972
aI3677
aI22110
aI126559
aI3684
aI3685
aI7783
aI12903
aI142956
aI40560
aI124534
aI30328
aI1659
aI13952
aI56967
aI11915
aI16019
aI52888
aI52889
aI161435
aI54944
aI89764
aI36518
aI149160
aI30379
aI11950
aI36529
aI54964
aI16329
aI1720
aI18108
aI85697
aI26306
aI22136
aI100052
aI22238
aI22245
aI67311
aI24317
aI44805
aI53006
aI24343
aI5914
aI16160
aI22306
aI12078
aI22319
aI143152
aI158687
aI18241
aI17377
aI16201
aI1866
aI48975
aI106322
aI59219
aI65364
aI20309
aI8023
aI108380
aI22367
aI34657
aI98154
aI44908
aI24429
aI73584
aI114554
aI27967
aI3964
aI67463
aI28556
aI20370
aI6040
aI1945
aI28572
aI16285
aI1953
aI61346
aI6054
aI40877
aI53171
aI10166
aI77756
aI14270
aI38857
aI10186
aI12236
aI59341
aI38866
aI59352
aI186342
aI34165
aI2025
aI80210
aI102383
aI16374
a.